ARM GAS  C:\Users\EBANO_~1\AppData\Local\Temp\ccLhCSjo.s 			page 1


   1              		.cpu cortex-m0plus
   2              		.eabi_attribute 20, 1
   3              		.eabi_attribute 21, 1
   4              		.eabi_attribute 23, 3
   5              		.eabi_attribute 24, 1
   6              		.eabi_attribute 25, 1
   7              		.eabi_attribute 26, 1
   8              		.eabi_attribute 30, 2
   9              		.eabi_attribute 34, 0
  10              		.eabi_attribute 18, 4
  11              		.file	"timeServer.c"
  12              		.text
  13              	.Ltext0:
  14              		.cfi_sections	.debug_frame
  15              		.section	.text.TimerInit,"ax",%progbits
  16              		.align	1
  17              		.p2align 2,,3
  18              		.global	TimerInit
  19              		.syntax unified
  20              		.code	16
  21              		.thumb_func
  22              		.fpu softvfp
  23              		.type	TimerInit, %function
  24              	TimerInit:
  25              	.LFB39:
  26              		.file 1 "../../../../../../Middlewares/Third_Party/LoRaWAN/Utilities/timeServer.c"
   1:../../../../../../Middlewares/Third_Party/LoRaWAN/Utilities/timeServer.c ****  /*
   2:../../../../../../Middlewares/Third_Party/LoRaWAN/Utilities/timeServer.c ****  / _____)             _              | |
   3:../../../../../../Middlewares/Third_Party/LoRaWAN/Utilities/timeServer.c **** ( (____  _____ ____ _| |_ _____  ____| |__
   4:../../../../../../Middlewares/Third_Party/LoRaWAN/Utilities/timeServer.c ****  \____ \| ___ |    (_   _) ___ |/ ___)  _ \
   5:../../../../../../Middlewares/Third_Party/LoRaWAN/Utilities/timeServer.c ****  _____) ) ____| | | || |_| ____( (___| | | |
   6:../../../../../../Middlewares/Third_Party/LoRaWAN/Utilities/timeServer.c **** (______/|_____)_|_|_| \__)_____)\____)_| |_|
   7:../../../../../../Middlewares/Third_Party/LoRaWAN/Utilities/timeServer.c ****     (C)2013 Semtech
   8:../../../../../../Middlewares/Third_Party/LoRaWAN/Utilities/timeServer.c **** 
   9:../../../../../../Middlewares/Third_Party/LoRaWAN/Utilities/timeServer.c **** Description: Generic lora driver implementation
  10:../../../../../../Middlewares/Third_Party/LoRaWAN/Utilities/timeServer.c **** 
  11:../../../../../../Middlewares/Third_Party/LoRaWAN/Utilities/timeServer.c **** License: Revised BSD License, see LICENSE.TXT file include in the project
  12:../../../../../../Middlewares/Third_Party/LoRaWAN/Utilities/timeServer.c **** 
  13:../../../../../../Middlewares/Third_Party/LoRaWAN/Utilities/timeServer.c **** Maintainer: Miguel Luis, Gregory Cristian and Wael Guibene
  14:../../../../../../Middlewares/Third_Party/LoRaWAN/Utilities/timeServer.c **** */
  15:../../../../../../Middlewares/Third_Party/LoRaWAN/Utilities/timeServer.c **** /******************************************************************************
  16:../../../../../../Middlewares/Third_Party/LoRaWAN/Utilities/timeServer.c ****   * @file    timeserver.c
  17:../../../../../../Middlewares/Third_Party/LoRaWAN/Utilities/timeServer.c ****   * @author  MCD Application Team
  18:../../../../../../Middlewares/Third_Party/LoRaWAN/Utilities/timeServer.c ****   * @brief   Time server infrastructure
  19:../../../../../../Middlewares/Third_Party/LoRaWAN/Utilities/timeServer.c ****   ******************************************************************************
  20:../../../../../../Middlewares/Third_Party/LoRaWAN/Utilities/timeServer.c ****   * @attention
  21:../../../../../../Middlewares/Third_Party/LoRaWAN/Utilities/timeServer.c ****   *
  22:../../../../../../Middlewares/Third_Party/LoRaWAN/Utilities/timeServer.c ****   * <h2><center>&copy; Copyright (c) 2018 STMicroelectronics.
  23:../../../../../../Middlewares/Third_Party/LoRaWAN/Utilities/timeServer.c ****   * All rights reserved.</center></h2>
  24:../../../../../../Middlewares/Third_Party/LoRaWAN/Utilities/timeServer.c ****   *
  25:../../../../../../Middlewares/Third_Party/LoRaWAN/Utilities/timeServer.c ****   * This software component is licensed by ST under Ultimate Liberty license
  26:../../../../../../Middlewares/Third_Party/LoRaWAN/Utilities/timeServer.c ****   * SLA0044, the "License"; You may not use this file except in compliance with
  27:../../../../../../Middlewares/Third_Party/LoRaWAN/Utilities/timeServer.c ****   * the License. You may obtain a copy of the License at:
  28:../../../../../../Middlewares/Third_Party/LoRaWAN/Utilities/timeServer.c ****   *                             www.st.com/SLA0044
  29:../../../../../../Middlewares/Third_Party/LoRaWAN/Utilities/timeServer.c ****   *
  30:../../../../../../Middlewares/Third_Party/LoRaWAN/Utilities/timeServer.c ****   ******************************************************************************
  31:../../../../../../Middlewares/Third_Party/LoRaWAN/Utilities/timeServer.c ****   */
ARM GAS  C:\Users\EBANO_~1\AppData\Local\Temp\ccLhCSjo.s 			page 2


  32:../../../../../../Middlewares/Third_Party/LoRaWAN/Utilities/timeServer.c **** 
  33:../../../../../../Middlewares/Third_Party/LoRaWAN/Utilities/timeServer.c **** /* Includes ------------------------------------------------------------------*/
  34:../../../../../../Middlewares/Third_Party/LoRaWAN/Utilities/timeServer.c **** #include <time.h>
  35:../../../../../../Middlewares/Third_Party/LoRaWAN/Utilities/timeServer.c **** #include "hw.h"
  36:../../../../../../Middlewares/Third_Party/LoRaWAN/Utilities/timeServer.c **** #include "timeServer.h"
  37:../../../../../../Middlewares/Third_Party/LoRaWAN/Utilities/timeServer.c **** //#include "low_power.h"
  38:../../../../../../Middlewares/Third_Party/LoRaWAN/Utilities/timeServer.c **** 
  39:../../../../../../Middlewares/Third_Party/LoRaWAN/Utilities/timeServer.c **** 
  40:../../../../../../Middlewares/Third_Party/LoRaWAN/Utilities/timeServer.c **** /*!
  41:../../../../../../Middlewares/Third_Party/LoRaWAN/Utilities/timeServer.c ****  * safely execute call back
  42:../../../../../../Middlewares/Third_Party/LoRaWAN/Utilities/timeServer.c ****  */
  43:../../../../../../Middlewares/Third_Party/LoRaWAN/Utilities/timeServer.c **** #define exec_cb( _callback_, context )     \
  44:../../../../../../Middlewares/Third_Party/LoRaWAN/Utilities/timeServer.c ****   do {                          \
  45:../../../../../../Middlewares/Third_Party/LoRaWAN/Utilities/timeServer.c ****       if( _callback_ == NULL )    \
  46:../../../../../../Middlewares/Third_Party/LoRaWAN/Utilities/timeServer.c ****       {                           \
  47:../../../../../../Middlewares/Third_Party/LoRaWAN/Utilities/timeServer.c ****         while(1);                 \
  48:../../../../../../Middlewares/Third_Party/LoRaWAN/Utilities/timeServer.c ****       }                           \
  49:../../../../../../Middlewares/Third_Party/LoRaWAN/Utilities/timeServer.c ****       else                        \
  50:../../../../../../Middlewares/Third_Party/LoRaWAN/Utilities/timeServer.c ****       {                           \
  51:../../../../../../Middlewares/Third_Party/LoRaWAN/Utilities/timeServer.c ****         _callback_( context );               \
  52:../../../../../../Middlewares/Third_Party/LoRaWAN/Utilities/timeServer.c ****       }                           \
  53:../../../../../../Middlewares/Third_Party/LoRaWAN/Utilities/timeServer.c ****   } while(0);                   
  54:../../../../../../Middlewares/Third_Party/LoRaWAN/Utilities/timeServer.c **** 
  55:../../../../../../Middlewares/Third_Party/LoRaWAN/Utilities/timeServer.c **** 
  56:../../../../../../Middlewares/Third_Party/LoRaWAN/Utilities/timeServer.c **** 
  57:../../../../../../Middlewares/Third_Party/LoRaWAN/Utilities/timeServer.c **** /*!
  58:../../../../../../Middlewares/Third_Party/LoRaWAN/Utilities/timeServer.c ****  * Timers list head pointer
  59:../../../../../../Middlewares/Third_Party/LoRaWAN/Utilities/timeServer.c ****  */
  60:../../../../../../Middlewares/Third_Party/LoRaWAN/Utilities/timeServer.c **** static TimerEvent_t *TimerListHead = NULL;
  61:../../../../../../Middlewares/Third_Party/LoRaWAN/Utilities/timeServer.c **** 
  62:../../../../../../Middlewares/Third_Party/LoRaWAN/Utilities/timeServer.c **** /*!
  63:../../../../../../Middlewares/Third_Party/LoRaWAN/Utilities/timeServer.c ****  * \brief Adds or replace the head timer of the list.
  64:../../../../../../Middlewares/Third_Party/LoRaWAN/Utilities/timeServer.c ****  *
  65:../../../../../../Middlewares/Third_Party/LoRaWAN/Utilities/timeServer.c ****  * \remark The list is automatically sorted. The list head always contains the
  66:../../../../../../Middlewares/Third_Party/LoRaWAN/Utilities/timeServer.c ****  *         next timer to expire.
  67:../../../../../../Middlewares/Third_Party/LoRaWAN/Utilities/timeServer.c ****  *
  68:../../../../../../Middlewares/Third_Party/LoRaWAN/Utilities/timeServer.c ****  * \param [IN]  obj Timer object to be become the new head
  69:../../../../../../Middlewares/Third_Party/LoRaWAN/Utilities/timeServer.c ****  * \param [IN]  remainingTime Remaining time of the previous head to be replaced
  70:../../../../../../Middlewares/Third_Party/LoRaWAN/Utilities/timeServer.c ****  */
  71:../../../../../../Middlewares/Third_Party/LoRaWAN/Utilities/timeServer.c **** static void TimerInsertNewHeadTimer( TimerEvent_t *obj );
  72:../../../../../../Middlewares/Third_Party/LoRaWAN/Utilities/timeServer.c **** 
  73:../../../../../../Middlewares/Third_Party/LoRaWAN/Utilities/timeServer.c **** /*!
  74:../../../../../../Middlewares/Third_Party/LoRaWAN/Utilities/timeServer.c ****  * \brief Adds a timer to the list.
  75:../../../../../../Middlewares/Third_Party/LoRaWAN/Utilities/timeServer.c ****  *
  76:../../../../../../Middlewares/Third_Party/LoRaWAN/Utilities/timeServer.c ****  * \remark The list is automatically sorted. The list head always contains the
  77:../../../../../../Middlewares/Third_Party/LoRaWAN/Utilities/timeServer.c ****  *         next timer to expire.
  78:../../../../../../Middlewares/Third_Party/LoRaWAN/Utilities/timeServer.c ****  *
  79:../../../../../../Middlewares/Third_Party/LoRaWAN/Utilities/timeServer.c ****  * \param [IN]  obj Timer object to be added to the list
  80:../../../../../../Middlewares/Third_Party/LoRaWAN/Utilities/timeServer.c ****  * \param [IN]  remainingTime Remaining time of the running head after which the object may be adde
  81:../../../../../../Middlewares/Third_Party/LoRaWAN/Utilities/timeServer.c ****  */
  82:../../../../../../Middlewares/Third_Party/LoRaWAN/Utilities/timeServer.c **** static void TimerInsertTimer( TimerEvent_t *obj );
  83:../../../../../../Middlewares/Third_Party/LoRaWAN/Utilities/timeServer.c **** 
  84:../../../../../../Middlewares/Third_Party/LoRaWAN/Utilities/timeServer.c **** /*!
  85:../../../../../../Middlewares/Third_Party/LoRaWAN/Utilities/timeServer.c ****  * \brief Sets a timeout with the duration "timestamp"
  86:../../../../../../Middlewares/Third_Party/LoRaWAN/Utilities/timeServer.c ****  *
  87:../../../../../../Middlewares/Third_Party/LoRaWAN/Utilities/timeServer.c ****  * \param [IN] timestamp Delay duration
  88:../../../../../../Middlewares/Third_Party/LoRaWAN/Utilities/timeServer.c ****  */
ARM GAS  C:\Users\EBANO_~1\AppData\Local\Temp\ccLhCSjo.s 			page 3


  89:../../../../../../Middlewares/Third_Party/LoRaWAN/Utilities/timeServer.c **** static void TimerSetTimeout( TimerEvent_t *obj );
  90:../../../../../../Middlewares/Third_Party/LoRaWAN/Utilities/timeServer.c **** 
  91:../../../../../../Middlewares/Third_Party/LoRaWAN/Utilities/timeServer.c **** /*!
  92:../../../../../../Middlewares/Third_Party/LoRaWAN/Utilities/timeServer.c ****  * \brief Check if the Object to be added is not already in the list
  93:../../../../../../Middlewares/Third_Party/LoRaWAN/Utilities/timeServer.c ****  *
  94:../../../../../../Middlewares/Third_Party/LoRaWAN/Utilities/timeServer.c ****  * \param [IN] timestamp Delay duration
  95:../../../../../../Middlewares/Third_Party/LoRaWAN/Utilities/timeServer.c ****  * \retval true (the object is already in the list) or false
  96:../../../../../../Middlewares/Third_Party/LoRaWAN/Utilities/timeServer.c ****  */
  97:../../../../../../Middlewares/Third_Party/LoRaWAN/Utilities/timeServer.c **** static bool TimerExists( TimerEvent_t *obj );
  98:../../../../../../Middlewares/Third_Party/LoRaWAN/Utilities/timeServer.c **** 
  99:../../../../../../Middlewares/Third_Party/LoRaWAN/Utilities/timeServer.c **** void TimerInit( TimerEvent_t *obj, void ( *callback )( void *context ) )
 100:../../../../../../Middlewares/Third_Party/LoRaWAN/Utilities/timeServer.c **** {
  27              		.loc 1 100 0
  28              		.cfi_startproc
  29              		@ args = 0, pretend = 0, frame = 0
  30              		@ frame_needed = 0, uses_anonymous_args = 0
  31              		@ link register save eliminated.
  32              	.LVL0:
 101:../../../../../../Middlewares/Third_Party/LoRaWAN/Utilities/timeServer.c ****   obj->Timestamp = 0;
  33              		.loc 1 101 0
  34 0000 0023     		movs	r3, #0
 102:../../../../../../Middlewares/Third_Party/LoRaWAN/Utilities/timeServer.c ****   obj->ReloadValue = 0;
 103:../../../../../../Middlewares/Third_Party/LoRaWAN/Utilities/timeServer.c ****   obj->IsStarted = false;
 104:../../../../../../Middlewares/Third_Party/LoRaWAN/Utilities/timeServer.c ****   obj->IsNext2Expire = false;
 105:../../../../../../Middlewares/Third_Party/LoRaWAN/Utilities/timeServer.c ****   obj->Callback = callback;
  35              		.loc 1 105 0
  36 0002 C160     		str	r1, [r0, #12]
 101:../../../../../../Middlewares/Third_Party/LoRaWAN/Utilities/timeServer.c ****   obj->Timestamp = 0;
  37              		.loc 1 101 0
  38 0004 0360     		str	r3, [r0]
 102:../../../../../../Middlewares/Third_Party/LoRaWAN/Utilities/timeServer.c ****   obj->ReloadValue = 0;
  39              		.loc 1 102 0
  40 0006 4360     		str	r3, [r0, #4]
 103:../../../../../../Middlewares/Third_Party/LoRaWAN/Utilities/timeServer.c ****   obj->IsNext2Expire = false;
  41              		.loc 1 103 0
  42 0008 0372     		strb	r3, [r0, #8]
 104:../../../../../../Middlewares/Third_Party/LoRaWAN/Utilities/timeServer.c ****   obj->Callback = callback;
  43              		.loc 1 104 0
  44 000a 4372     		strb	r3, [r0, #9]
 106:../../../../../../Middlewares/Third_Party/LoRaWAN/Utilities/timeServer.c ****   obj->Context = NULL;
  45              		.loc 1 106 0
  46 000c 0361     		str	r3, [r0, #16]
 107:../../../../../../Middlewares/Third_Party/LoRaWAN/Utilities/timeServer.c ****   obj->Next = NULL;
  47              		.loc 1 107 0
  48 000e 4361     		str	r3, [r0, #20]
 108:../../../../../../Middlewares/Third_Party/LoRaWAN/Utilities/timeServer.c **** }
  49              		.loc 1 108 0
  50              		@ sp needed
  51 0010 7047     		bx	lr
  52              		.cfi_endproc
  53              	.LFE39:
  54              		.size	TimerInit, .-TimerInit
  55 0012 C046     		.section	.text.TimerSetContext,"ax",%progbits
  56              		.align	1
  57              		.p2align 2,,3
  58              		.global	TimerSetContext
  59              		.syntax unified
ARM GAS  C:\Users\EBANO_~1\AppData\Local\Temp\ccLhCSjo.s 			page 4


  60              		.code	16
  61              		.thumb_func
  62              		.fpu softvfp
  63              		.type	TimerSetContext, %function
  64              	TimerSetContext:
  65              	.LFB40:
 109:../../../../../../Middlewares/Third_Party/LoRaWAN/Utilities/timeServer.c **** 
 110:../../../../../../Middlewares/Third_Party/LoRaWAN/Utilities/timeServer.c **** void TimerSetContext( TimerEvent_t *obj, void* context )
 111:../../../../../../Middlewares/Third_Party/LoRaWAN/Utilities/timeServer.c **** {
  66              		.loc 1 111 0
  67              		.cfi_startproc
  68              		@ args = 0, pretend = 0, frame = 0
  69              		@ frame_needed = 0, uses_anonymous_args = 0
  70              		@ link register save eliminated.
  71              	.LVL1:
 112:../../../../../../Middlewares/Third_Party/LoRaWAN/Utilities/timeServer.c ****   obj->Context = context;
  72              		.loc 1 112 0
  73 0000 0161     		str	r1, [r0, #16]
 113:../../../../../../Middlewares/Third_Party/LoRaWAN/Utilities/timeServer.c **** }
  74              		.loc 1 113 0
  75              		@ sp needed
  76 0002 7047     		bx	lr
  77              		.cfi_endproc
  78              	.LFE40:
  79              		.size	TimerSetContext, .-TimerSetContext
  80              		.section	.text.TimerStart,"ax",%progbits
  81              		.align	1
  82              		.p2align 2,,3
  83              		.global	TimerStart
  84              		.syntax unified
  85              		.code	16
  86              		.thumb_func
  87              		.fpu softvfp
  88              		.type	TimerStart, %function
  89              	TimerStart:
  90              	.LFB41:
 114:../../../../../../Middlewares/Third_Party/LoRaWAN/Utilities/timeServer.c **** 
 115:../../../../../../Middlewares/Third_Party/LoRaWAN/Utilities/timeServer.c **** void TimerStart( TimerEvent_t *obj )
 116:../../../../../../Middlewares/Third_Party/LoRaWAN/Utilities/timeServer.c **** {
  91              		.loc 1 116 0
  92              		.cfi_startproc
  93              		@ args = 0, pretend = 0, frame = 0
  94              		@ frame_needed = 0, uses_anonymous_args = 0
  95              	.LVL2:
  96 0000 F0B5     		push	{r4, r5, r6, r7, lr}
  97              	.LCFI0:
  98              		.cfi_def_cfa_offset 20
  99              		.cfi_offset 4, -20
 100              		.cfi_offset 5, -16
 101              		.cfi_offset 6, -12
 102              		.cfi_offset 7, -8
 103              		.cfi_offset 14, -4
 104 0002 C646     		mov	lr, r8
 105 0004 0500     		movs	r5, r0
 106 0006 00B5     		push	{lr}
 107              	.LCFI1:
 108              		.cfi_def_cfa_offset 24
ARM GAS  C:\Users\EBANO_~1\AppData\Local\Temp\ccLhCSjo.s 			page 5


 109              		.cfi_offset 8, -24
 110              	.LBB70:
 111              	.LBB71:
 112              		.file 2 "../../../../../../Drivers/CMSIS/Include/cmsis_gcc.h"
   1:../../../../../../Drivers/CMSIS/Include/cmsis_gcc.h **** /**************************************************************************//**
   2:../../../../../../Drivers/CMSIS/Include/cmsis_gcc.h ****  * @file     cmsis_gcc.h
   3:../../../../../../Drivers/CMSIS/Include/cmsis_gcc.h ****  * @brief    CMSIS compiler GCC header file
   4:../../../../../../Drivers/CMSIS/Include/cmsis_gcc.h ****  * @version  V5.0.1
   5:../../../../../../Drivers/CMSIS/Include/cmsis_gcc.h ****  * @date     02. February 2017
   6:../../../../../../Drivers/CMSIS/Include/cmsis_gcc.h ****  ******************************************************************************/
   7:../../../../../../Drivers/CMSIS/Include/cmsis_gcc.h **** /*
   8:../../../../../../Drivers/CMSIS/Include/cmsis_gcc.h ****  * Copyright (c) 2009-2017 ARM Limited. All rights reserved.
   9:../../../../../../Drivers/CMSIS/Include/cmsis_gcc.h ****  *
  10:../../../../../../Drivers/CMSIS/Include/cmsis_gcc.h ****  * SPDX-License-Identifier: Apache-2.0
  11:../../../../../../Drivers/CMSIS/Include/cmsis_gcc.h ****  *
  12:../../../../../../Drivers/CMSIS/Include/cmsis_gcc.h ****  * Licensed under the Apache License, Version 2.0 (the License); you may
  13:../../../../../../Drivers/CMSIS/Include/cmsis_gcc.h ****  * not use this file except in compliance with the License.
  14:../../../../../../Drivers/CMSIS/Include/cmsis_gcc.h ****  * You may obtain a copy of the License at
  15:../../../../../../Drivers/CMSIS/Include/cmsis_gcc.h ****  *
  16:../../../../../../Drivers/CMSIS/Include/cmsis_gcc.h ****  * www.apache.org/licenses/LICENSE-2.0
  17:../../../../../../Drivers/CMSIS/Include/cmsis_gcc.h ****  *
  18:../../../../../../Drivers/CMSIS/Include/cmsis_gcc.h ****  * Unless required by applicable law or agreed to in writing, software
  19:../../../../../../Drivers/CMSIS/Include/cmsis_gcc.h ****  * distributed under the License is distributed on an AS IS BASIS, WITHOUT
  20:../../../../../../Drivers/CMSIS/Include/cmsis_gcc.h ****  * WARRANTIES OR CONDITIONS OF ANY KIND, either express or implied.
  21:../../../../../../Drivers/CMSIS/Include/cmsis_gcc.h ****  * See the License for the specific language governing permissions and
  22:../../../../../../Drivers/CMSIS/Include/cmsis_gcc.h ****  * limitations under the License.
  23:../../../../../../Drivers/CMSIS/Include/cmsis_gcc.h ****  */
  24:../../../../../../Drivers/CMSIS/Include/cmsis_gcc.h **** 
  25:../../../../../../Drivers/CMSIS/Include/cmsis_gcc.h **** #ifndef __CMSIS_GCC_H
  26:../../../../../../Drivers/CMSIS/Include/cmsis_gcc.h **** #define __CMSIS_GCC_H
  27:../../../../../../Drivers/CMSIS/Include/cmsis_gcc.h **** 
  28:../../../../../../Drivers/CMSIS/Include/cmsis_gcc.h **** /* ignore some GCC warnings */
  29:../../../../../../Drivers/CMSIS/Include/cmsis_gcc.h **** #pragma GCC diagnostic push
  30:../../../../../../Drivers/CMSIS/Include/cmsis_gcc.h **** #pragma GCC diagnostic ignored "-Wsign-conversion"
  31:../../../../../../Drivers/CMSIS/Include/cmsis_gcc.h **** #pragma GCC diagnostic ignored "-Wconversion"
  32:../../../../../../Drivers/CMSIS/Include/cmsis_gcc.h **** #pragma GCC diagnostic ignored "-Wunused-parameter"
  33:../../../../../../Drivers/CMSIS/Include/cmsis_gcc.h **** 
  34:../../../../../../Drivers/CMSIS/Include/cmsis_gcc.h **** /* CMSIS compiler specific defines */
  35:../../../../../../Drivers/CMSIS/Include/cmsis_gcc.h **** #ifndef   __ASM
  36:../../../../../../Drivers/CMSIS/Include/cmsis_gcc.h ****   #define __ASM                     __asm
  37:../../../../../../Drivers/CMSIS/Include/cmsis_gcc.h **** #endif
  38:../../../../../../Drivers/CMSIS/Include/cmsis_gcc.h **** #ifndef   __INLINE
  39:../../../../../../Drivers/CMSIS/Include/cmsis_gcc.h ****   #define __INLINE                  inline
  40:../../../../../../Drivers/CMSIS/Include/cmsis_gcc.h **** #endif
  41:../../../../../../Drivers/CMSIS/Include/cmsis_gcc.h **** #ifndef   __STATIC_INLINE
  42:../../../../../../Drivers/CMSIS/Include/cmsis_gcc.h ****   #define __STATIC_INLINE           static inline
  43:../../../../../../Drivers/CMSIS/Include/cmsis_gcc.h **** #endif
  44:../../../../../../Drivers/CMSIS/Include/cmsis_gcc.h **** #ifndef   __NO_RETURN
  45:../../../../../../Drivers/CMSIS/Include/cmsis_gcc.h ****   #define __NO_RETURN               __attribute__((noreturn))
  46:../../../../../../Drivers/CMSIS/Include/cmsis_gcc.h **** #endif
  47:../../../../../../Drivers/CMSIS/Include/cmsis_gcc.h **** #ifndef   __USED
  48:../../../../../../Drivers/CMSIS/Include/cmsis_gcc.h ****   #define __USED                    __attribute__((used))
  49:../../../../../../Drivers/CMSIS/Include/cmsis_gcc.h **** #endif
  50:../../../../../../Drivers/CMSIS/Include/cmsis_gcc.h **** #ifndef   __WEAK
  51:../../../../../../Drivers/CMSIS/Include/cmsis_gcc.h ****   #define __WEAK                    __attribute__((weak))
  52:../../../../../../Drivers/CMSIS/Include/cmsis_gcc.h **** #endif
  53:../../../../../../Drivers/CMSIS/Include/cmsis_gcc.h **** #ifndef   __UNALIGNED_UINT32
ARM GAS  C:\Users\EBANO_~1\AppData\Local\Temp\ccLhCSjo.s 			page 6


  54:../../../../../../Drivers/CMSIS/Include/cmsis_gcc.h **** #pragma GCC diagnostic push
  55:../../../../../../Drivers/CMSIS/Include/cmsis_gcc.h **** #pragma GCC diagnostic ignored "-Wpacked"
  56:../../../../../../Drivers/CMSIS/Include/cmsis_gcc.h **** #pragma GCC diagnostic ignored "-Wattributes"
  57:../../../../../../Drivers/CMSIS/Include/cmsis_gcc.h ****   struct __attribute__((packed)) T_UINT32 { uint32_t v; };
  58:../../../../../../Drivers/CMSIS/Include/cmsis_gcc.h **** #pragma GCC diagnostic pop
  59:../../../../../../Drivers/CMSIS/Include/cmsis_gcc.h ****   #define __UNALIGNED_UINT32(x)     (((struct T_UINT32 *)(x))->v)
  60:../../../../../../Drivers/CMSIS/Include/cmsis_gcc.h **** #endif
  61:../../../../../../Drivers/CMSIS/Include/cmsis_gcc.h **** #ifndef   __ALIGNED
  62:../../../../../../Drivers/CMSIS/Include/cmsis_gcc.h ****   #define __ALIGNED(x)              __attribute__((aligned(x)))
  63:../../../../../../Drivers/CMSIS/Include/cmsis_gcc.h **** #endif
  64:../../../../../../Drivers/CMSIS/Include/cmsis_gcc.h **** #ifndef   __PACKED
  65:../../../../../../Drivers/CMSIS/Include/cmsis_gcc.h ****   #define __PACKED                  __attribute__((packed, aligned(1)))
  66:../../../../../../Drivers/CMSIS/Include/cmsis_gcc.h **** #endif
  67:../../../../../../Drivers/CMSIS/Include/cmsis_gcc.h **** #ifndef   __PACKED_STRUCT
  68:../../../../../../Drivers/CMSIS/Include/cmsis_gcc.h ****   #define __PACKED_STRUCT           struct __attribute__((packed, aligned(1)))
  69:../../../../../../Drivers/CMSIS/Include/cmsis_gcc.h **** #endif
  70:../../../../../../Drivers/CMSIS/Include/cmsis_gcc.h **** 
  71:../../../../../../Drivers/CMSIS/Include/cmsis_gcc.h **** 
  72:../../../../../../Drivers/CMSIS/Include/cmsis_gcc.h **** /* ###########################  Core Function Access  ########################### */
  73:../../../../../../Drivers/CMSIS/Include/cmsis_gcc.h **** /** \ingroup  CMSIS_Core_FunctionInterface
  74:../../../../../../Drivers/CMSIS/Include/cmsis_gcc.h ****     \defgroup CMSIS_Core_RegAccFunctions CMSIS Core Register Access Functions
  75:../../../../../../Drivers/CMSIS/Include/cmsis_gcc.h ****   @{
  76:../../../../../../Drivers/CMSIS/Include/cmsis_gcc.h ****  */
  77:../../../../../../Drivers/CMSIS/Include/cmsis_gcc.h **** 
  78:../../../../../../Drivers/CMSIS/Include/cmsis_gcc.h **** /**
  79:../../../../../../Drivers/CMSIS/Include/cmsis_gcc.h ****   \brief   Enable IRQ Interrupts
  80:../../../../../../Drivers/CMSIS/Include/cmsis_gcc.h ****   \details Enables IRQ interrupts by clearing the I-bit in the CPSR.
  81:../../../../../../Drivers/CMSIS/Include/cmsis_gcc.h ****            Can only be executed in Privileged modes.
  82:../../../../../../Drivers/CMSIS/Include/cmsis_gcc.h ****  */
  83:../../../../../../Drivers/CMSIS/Include/cmsis_gcc.h **** __attribute__((always_inline)) __STATIC_INLINE void __enable_irq(void)
  84:../../../../../../Drivers/CMSIS/Include/cmsis_gcc.h **** {
  85:../../../../../../Drivers/CMSIS/Include/cmsis_gcc.h ****   __ASM volatile ("cpsie i" : : : "memory");
  86:../../../../../../Drivers/CMSIS/Include/cmsis_gcc.h **** }
  87:../../../../../../Drivers/CMSIS/Include/cmsis_gcc.h **** 
  88:../../../../../../Drivers/CMSIS/Include/cmsis_gcc.h **** 
  89:../../../../../../Drivers/CMSIS/Include/cmsis_gcc.h **** /**
  90:../../../../../../Drivers/CMSIS/Include/cmsis_gcc.h ****   \brief   Disable IRQ Interrupts
  91:../../../../../../Drivers/CMSIS/Include/cmsis_gcc.h ****   \details Disables IRQ interrupts by setting the I-bit in the CPSR.
  92:../../../../../../Drivers/CMSIS/Include/cmsis_gcc.h ****            Can only be executed in Privileged modes.
  93:../../../../../../Drivers/CMSIS/Include/cmsis_gcc.h ****  */
  94:../../../../../../Drivers/CMSIS/Include/cmsis_gcc.h **** __attribute__((always_inline)) __STATIC_INLINE void __disable_irq(void)
  95:../../../../../../Drivers/CMSIS/Include/cmsis_gcc.h **** {
  96:../../../../../../Drivers/CMSIS/Include/cmsis_gcc.h ****   __ASM volatile ("cpsid i" : : : "memory");
  97:../../../../../../Drivers/CMSIS/Include/cmsis_gcc.h **** }
  98:../../../../../../Drivers/CMSIS/Include/cmsis_gcc.h **** 
  99:../../../../../../Drivers/CMSIS/Include/cmsis_gcc.h **** 
 100:../../../../../../Drivers/CMSIS/Include/cmsis_gcc.h **** /**
 101:../../../../../../Drivers/CMSIS/Include/cmsis_gcc.h ****   \brief   Get Control Register
 102:../../../../../../Drivers/CMSIS/Include/cmsis_gcc.h ****   \details Returns the content of the Control Register.
 103:../../../../../../Drivers/CMSIS/Include/cmsis_gcc.h ****   \return               Control Register value
 104:../../../../../../Drivers/CMSIS/Include/cmsis_gcc.h ****  */
 105:../../../../../../Drivers/CMSIS/Include/cmsis_gcc.h **** __attribute__((always_inline)) __STATIC_INLINE uint32_t __get_CONTROL(void)
 106:../../../../../../Drivers/CMSIS/Include/cmsis_gcc.h **** {
 107:../../../../../../Drivers/CMSIS/Include/cmsis_gcc.h ****   uint32_t result;
 108:../../../../../../Drivers/CMSIS/Include/cmsis_gcc.h **** 
 109:../../../../../../Drivers/CMSIS/Include/cmsis_gcc.h ****   __ASM volatile ("MRS %0, control" : "=r" (result) );
 110:../../../../../../Drivers/CMSIS/Include/cmsis_gcc.h ****   return(result);
ARM GAS  C:\Users\EBANO_~1\AppData\Local\Temp\ccLhCSjo.s 			page 7


 111:../../../../../../Drivers/CMSIS/Include/cmsis_gcc.h **** }
 112:../../../../../../Drivers/CMSIS/Include/cmsis_gcc.h **** 
 113:../../../../../../Drivers/CMSIS/Include/cmsis_gcc.h **** 
 114:../../../../../../Drivers/CMSIS/Include/cmsis_gcc.h **** #if (defined (__ARM_FEATURE_CMSE ) && (__ARM_FEATURE_CMSE == 3))
 115:../../../../../../Drivers/CMSIS/Include/cmsis_gcc.h **** /**
 116:../../../../../../Drivers/CMSIS/Include/cmsis_gcc.h ****   \brief   Get Control Register (non-secure)
 117:../../../../../../Drivers/CMSIS/Include/cmsis_gcc.h ****   \details Returns the content of the non-secure Control Register when in secure mode.
 118:../../../../../../Drivers/CMSIS/Include/cmsis_gcc.h ****   \return               non-secure Control Register value
 119:../../../../../../Drivers/CMSIS/Include/cmsis_gcc.h ****  */
 120:../../../../../../Drivers/CMSIS/Include/cmsis_gcc.h **** __attribute__((always_inline)) __STATIC_INLINE uint32_t __TZ_get_CONTROL_NS(void)
 121:../../../../../../Drivers/CMSIS/Include/cmsis_gcc.h **** {
 122:../../../../../../Drivers/CMSIS/Include/cmsis_gcc.h ****   uint32_t result;
 123:../../../../../../Drivers/CMSIS/Include/cmsis_gcc.h **** 
 124:../../../../../../Drivers/CMSIS/Include/cmsis_gcc.h ****   __ASM volatile ("MRS %0, control_ns" : "=r" (result) );
 125:../../../../../../Drivers/CMSIS/Include/cmsis_gcc.h ****   return(result);
 126:../../../../../../Drivers/CMSIS/Include/cmsis_gcc.h **** }
 127:../../../../../../Drivers/CMSIS/Include/cmsis_gcc.h **** #endif
 128:../../../../../../Drivers/CMSIS/Include/cmsis_gcc.h **** 
 129:../../../../../../Drivers/CMSIS/Include/cmsis_gcc.h **** 
 130:../../../../../../Drivers/CMSIS/Include/cmsis_gcc.h **** /**
 131:../../../../../../Drivers/CMSIS/Include/cmsis_gcc.h ****   \brief   Set Control Register
 132:../../../../../../Drivers/CMSIS/Include/cmsis_gcc.h ****   \details Writes the given value to the Control Register.
 133:../../../../../../Drivers/CMSIS/Include/cmsis_gcc.h ****   \param [in]    control  Control Register value to set
 134:../../../../../../Drivers/CMSIS/Include/cmsis_gcc.h ****  */
 135:../../../../../../Drivers/CMSIS/Include/cmsis_gcc.h **** __attribute__((always_inline)) __STATIC_INLINE void __set_CONTROL(uint32_t control)
 136:../../../../../../Drivers/CMSIS/Include/cmsis_gcc.h **** {
 137:../../../../../../Drivers/CMSIS/Include/cmsis_gcc.h ****   __ASM volatile ("MSR control, %0" : : "r" (control) : "memory");
 138:../../../../../../Drivers/CMSIS/Include/cmsis_gcc.h **** }
 139:../../../../../../Drivers/CMSIS/Include/cmsis_gcc.h **** 
 140:../../../../../../Drivers/CMSIS/Include/cmsis_gcc.h **** 
 141:../../../../../../Drivers/CMSIS/Include/cmsis_gcc.h **** #if (defined (__ARM_FEATURE_CMSE ) && (__ARM_FEATURE_CMSE == 3))
 142:../../../../../../Drivers/CMSIS/Include/cmsis_gcc.h **** /**
 143:../../../../../../Drivers/CMSIS/Include/cmsis_gcc.h ****   \brief   Set Control Register (non-secure)
 144:../../../../../../Drivers/CMSIS/Include/cmsis_gcc.h ****   \details Writes the given value to the non-secure Control Register when in secure state.
 145:../../../../../../Drivers/CMSIS/Include/cmsis_gcc.h ****   \param [in]    control  Control Register value to set
 146:../../../../../../Drivers/CMSIS/Include/cmsis_gcc.h ****  */
 147:../../../../../../Drivers/CMSIS/Include/cmsis_gcc.h **** __attribute__((always_inline)) __STATIC_INLINE void __TZ_set_CONTROL_NS(uint32_t control)
 148:../../../../../../Drivers/CMSIS/Include/cmsis_gcc.h **** {
 149:../../../../../../Drivers/CMSIS/Include/cmsis_gcc.h ****   __ASM volatile ("MSR control_ns, %0" : : "r" (control) : "memory");
 150:../../../../../../Drivers/CMSIS/Include/cmsis_gcc.h **** }
 151:../../../../../../Drivers/CMSIS/Include/cmsis_gcc.h **** #endif
 152:../../../../../../Drivers/CMSIS/Include/cmsis_gcc.h **** 
 153:../../../../../../Drivers/CMSIS/Include/cmsis_gcc.h **** 
 154:../../../../../../Drivers/CMSIS/Include/cmsis_gcc.h **** /**
 155:../../../../../../Drivers/CMSIS/Include/cmsis_gcc.h ****   \brief   Get IPSR Register
 156:../../../../../../Drivers/CMSIS/Include/cmsis_gcc.h ****   \details Returns the content of the IPSR Register.
 157:../../../../../../Drivers/CMSIS/Include/cmsis_gcc.h ****   \return               IPSR Register value
 158:../../../../../../Drivers/CMSIS/Include/cmsis_gcc.h ****  */
 159:../../../../../../Drivers/CMSIS/Include/cmsis_gcc.h **** __attribute__((always_inline)) __STATIC_INLINE uint32_t __get_IPSR(void)
 160:../../../../../../Drivers/CMSIS/Include/cmsis_gcc.h **** {
 161:../../../../../../Drivers/CMSIS/Include/cmsis_gcc.h ****   uint32_t result;
 162:../../../../../../Drivers/CMSIS/Include/cmsis_gcc.h **** 
 163:../../../../../../Drivers/CMSIS/Include/cmsis_gcc.h ****   __ASM volatile ("MRS %0, ipsr" : "=r" (result) );
 164:../../../../../../Drivers/CMSIS/Include/cmsis_gcc.h ****   return(result);
 165:../../../../../../Drivers/CMSIS/Include/cmsis_gcc.h **** }
 166:../../../../../../Drivers/CMSIS/Include/cmsis_gcc.h **** 
 167:../../../../../../Drivers/CMSIS/Include/cmsis_gcc.h **** 
ARM GAS  C:\Users\EBANO_~1\AppData\Local\Temp\ccLhCSjo.s 			page 8


 168:../../../../../../Drivers/CMSIS/Include/cmsis_gcc.h **** /**
 169:../../../../../../Drivers/CMSIS/Include/cmsis_gcc.h ****   \brief   Get APSR Register
 170:../../../../../../Drivers/CMSIS/Include/cmsis_gcc.h ****   \details Returns the content of the APSR Register.
 171:../../../../../../Drivers/CMSIS/Include/cmsis_gcc.h ****   \return               APSR Register value
 172:../../../../../../Drivers/CMSIS/Include/cmsis_gcc.h ****  */
 173:../../../../../../Drivers/CMSIS/Include/cmsis_gcc.h **** __attribute__((always_inline)) __STATIC_INLINE uint32_t __get_APSR(void)
 174:../../../../../../Drivers/CMSIS/Include/cmsis_gcc.h **** {
 175:../../../../../../Drivers/CMSIS/Include/cmsis_gcc.h ****   uint32_t result;
 176:../../../../../../Drivers/CMSIS/Include/cmsis_gcc.h **** 
 177:../../../../../../Drivers/CMSIS/Include/cmsis_gcc.h ****   __ASM volatile ("MRS %0, apsr" : "=r" (result) );
 178:../../../../../../Drivers/CMSIS/Include/cmsis_gcc.h ****   return(result);
 179:../../../../../../Drivers/CMSIS/Include/cmsis_gcc.h **** }
 180:../../../../../../Drivers/CMSIS/Include/cmsis_gcc.h **** 
 181:../../../../../../Drivers/CMSIS/Include/cmsis_gcc.h **** 
 182:../../../../../../Drivers/CMSIS/Include/cmsis_gcc.h **** /**
 183:../../../../../../Drivers/CMSIS/Include/cmsis_gcc.h ****   \brief   Get xPSR Register
 184:../../../../../../Drivers/CMSIS/Include/cmsis_gcc.h ****   \details Returns the content of the xPSR Register.
 185:../../../../../../Drivers/CMSIS/Include/cmsis_gcc.h ****   \return               xPSR Register value
 186:../../../../../../Drivers/CMSIS/Include/cmsis_gcc.h ****  */
 187:../../../../../../Drivers/CMSIS/Include/cmsis_gcc.h **** __attribute__((always_inline)) __STATIC_INLINE uint32_t __get_xPSR(void)
 188:../../../../../../Drivers/CMSIS/Include/cmsis_gcc.h **** {
 189:../../../../../../Drivers/CMSIS/Include/cmsis_gcc.h ****   uint32_t result;
 190:../../../../../../Drivers/CMSIS/Include/cmsis_gcc.h **** 
 191:../../../../../../Drivers/CMSIS/Include/cmsis_gcc.h ****   __ASM volatile ("MRS %0, xpsr" : "=r" (result) );
 192:../../../../../../Drivers/CMSIS/Include/cmsis_gcc.h ****   return(result);
 193:../../../../../../Drivers/CMSIS/Include/cmsis_gcc.h **** }
 194:../../../../../../Drivers/CMSIS/Include/cmsis_gcc.h **** 
 195:../../../../../../Drivers/CMSIS/Include/cmsis_gcc.h **** 
 196:../../../../../../Drivers/CMSIS/Include/cmsis_gcc.h **** /**
 197:../../../../../../Drivers/CMSIS/Include/cmsis_gcc.h ****   \brief   Get Process Stack Pointer
 198:../../../../../../Drivers/CMSIS/Include/cmsis_gcc.h ****   \details Returns the current value of the Process Stack Pointer (PSP).
 199:../../../../../../Drivers/CMSIS/Include/cmsis_gcc.h ****   \return               PSP Register value
 200:../../../../../../Drivers/CMSIS/Include/cmsis_gcc.h ****  */
 201:../../../../../../Drivers/CMSIS/Include/cmsis_gcc.h **** __attribute__((always_inline)) __STATIC_INLINE uint32_t __get_PSP(void)
 202:../../../../../../Drivers/CMSIS/Include/cmsis_gcc.h **** {
 203:../../../../../../Drivers/CMSIS/Include/cmsis_gcc.h ****   register uint32_t result;
 204:../../../../../../Drivers/CMSIS/Include/cmsis_gcc.h **** 
 205:../../../../../../Drivers/CMSIS/Include/cmsis_gcc.h ****   __ASM volatile ("MRS %0, psp"  : "=r" (result) );
 206:../../../../../../Drivers/CMSIS/Include/cmsis_gcc.h ****   return(result);
 207:../../../../../../Drivers/CMSIS/Include/cmsis_gcc.h **** }
 208:../../../../../../Drivers/CMSIS/Include/cmsis_gcc.h **** 
 209:../../../../../../Drivers/CMSIS/Include/cmsis_gcc.h **** 
 210:../../../../../../Drivers/CMSIS/Include/cmsis_gcc.h **** #if (defined (__ARM_FEATURE_CMSE ) && (__ARM_FEATURE_CMSE == 3))
 211:../../../../../../Drivers/CMSIS/Include/cmsis_gcc.h **** /**
 212:../../../../../../Drivers/CMSIS/Include/cmsis_gcc.h ****   \brief   Get Process Stack Pointer (non-secure)
 213:../../../../../../Drivers/CMSIS/Include/cmsis_gcc.h ****   \details Returns the current value of the non-secure Process Stack Pointer (PSP) when in secure s
 214:../../../../../../Drivers/CMSIS/Include/cmsis_gcc.h ****   \return               PSP Register value
 215:../../../../../../Drivers/CMSIS/Include/cmsis_gcc.h ****  */
 216:../../../../../../Drivers/CMSIS/Include/cmsis_gcc.h **** __attribute__((always_inline)) __STATIC_INLINE uint32_t __TZ_get_PSP_NS(void)
 217:../../../../../../Drivers/CMSIS/Include/cmsis_gcc.h **** {
 218:../../../../../../Drivers/CMSIS/Include/cmsis_gcc.h ****   register uint32_t result;
 219:../../../../../../Drivers/CMSIS/Include/cmsis_gcc.h **** 
 220:../../../../../../Drivers/CMSIS/Include/cmsis_gcc.h ****   __ASM volatile ("MRS %0, psp_ns"  : "=r" (result) );
 221:../../../../../../Drivers/CMSIS/Include/cmsis_gcc.h ****   return(result);
 222:../../../../../../Drivers/CMSIS/Include/cmsis_gcc.h **** }
 223:../../../../../../Drivers/CMSIS/Include/cmsis_gcc.h **** #endif
 224:../../../../../../Drivers/CMSIS/Include/cmsis_gcc.h **** 
ARM GAS  C:\Users\EBANO_~1\AppData\Local\Temp\ccLhCSjo.s 			page 9


 225:../../../../../../Drivers/CMSIS/Include/cmsis_gcc.h **** 
 226:../../../../../../Drivers/CMSIS/Include/cmsis_gcc.h **** /**
 227:../../../../../../Drivers/CMSIS/Include/cmsis_gcc.h ****   \brief   Set Process Stack Pointer
 228:../../../../../../Drivers/CMSIS/Include/cmsis_gcc.h ****   \details Assigns the given value to the Process Stack Pointer (PSP).
 229:../../../../../../Drivers/CMSIS/Include/cmsis_gcc.h ****   \param [in]    topOfProcStack  Process Stack Pointer value to set
 230:../../../../../../Drivers/CMSIS/Include/cmsis_gcc.h ****  */
 231:../../../../../../Drivers/CMSIS/Include/cmsis_gcc.h **** __attribute__((always_inline)) __STATIC_INLINE void __set_PSP(uint32_t topOfProcStack)
 232:../../../../../../Drivers/CMSIS/Include/cmsis_gcc.h **** {
 233:../../../../../../Drivers/CMSIS/Include/cmsis_gcc.h ****   __ASM volatile ("MSR psp, %0" : : "r" (topOfProcStack) : );
 234:../../../../../../Drivers/CMSIS/Include/cmsis_gcc.h **** }
 235:../../../../../../Drivers/CMSIS/Include/cmsis_gcc.h **** 
 236:../../../../../../Drivers/CMSIS/Include/cmsis_gcc.h **** 
 237:../../../../../../Drivers/CMSIS/Include/cmsis_gcc.h **** #if (defined (__ARM_FEATURE_CMSE ) && (__ARM_FEATURE_CMSE == 3))
 238:../../../../../../Drivers/CMSIS/Include/cmsis_gcc.h **** /**
 239:../../../../../../Drivers/CMSIS/Include/cmsis_gcc.h ****   \brief   Set Process Stack Pointer (non-secure)
 240:../../../../../../Drivers/CMSIS/Include/cmsis_gcc.h ****   \details Assigns the given value to the non-secure Process Stack Pointer (PSP) when in secure sta
 241:../../../../../../Drivers/CMSIS/Include/cmsis_gcc.h ****   \param [in]    topOfProcStack  Process Stack Pointer value to set
 242:../../../../../../Drivers/CMSIS/Include/cmsis_gcc.h ****  */
 243:../../../../../../Drivers/CMSIS/Include/cmsis_gcc.h **** __attribute__((always_inline)) __STATIC_INLINE void __TZ_set_PSP_NS(uint32_t topOfProcStack)
 244:../../../../../../Drivers/CMSIS/Include/cmsis_gcc.h **** {
 245:../../../../../../Drivers/CMSIS/Include/cmsis_gcc.h ****   __ASM volatile ("MSR psp_ns, %0" : : "r" (topOfProcStack) : );
 246:../../../../../../Drivers/CMSIS/Include/cmsis_gcc.h **** }
 247:../../../../../../Drivers/CMSIS/Include/cmsis_gcc.h **** #endif
 248:../../../../../../Drivers/CMSIS/Include/cmsis_gcc.h **** 
 249:../../../../../../Drivers/CMSIS/Include/cmsis_gcc.h **** 
 250:../../../../../../Drivers/CMSIS/Include/cmsis_gcc.h **** /**
 251:../../../../../../Drivers/CMSIS/Include/cmsis_gcc.h ****   \brief   Get Main Stack Pointer
 252:../../../../../../Drivers/CMSIS/Include/cmsis_gcc.h ****   \details Returns the current value of the Main Stack Pointer (MSP).
 253:../../../../../../Drivers/CMSIS/Include/cmsis_gcc.h ****   \return               MSP Register value
 254:../../../../../../Drivers/CMSIS/Include/cmsis_gcc.h ****  */
 255:../../../../../../Drivers/CMSIS/Include/cmsis_gcc.h **** __attribute__((always_inline)) __STATIC_INLINE uint32_t __get_MSP(void)
 256:../../../../../../Drivers/CMSIS/Include/cmsis_gcc.h **** {
 257:../../../../../../Drivers/CMSIS/Include/cmsis_gcc.h ****   register uint32_t result;
 258:../../../../../../Drivers/CMSIS/Include/cmsis_gcc.h **** 
 259:../../../../../../Drivers/CMSIS/Include/cmsis_gcc.h ****   __ASM volatile ("MRS %0, msp" : "=r" (result) );
 260:../../../../../../Drivers/CMSIS/Include/cmsis_gcc.h ****   return(result);
 261:../../../../../../Drivers/CMSIS/Include/cmsis_gcc.h **** }
 262:../../../../../../Drivers/CMSIS/Include/cmsis_gcc.h **** 
 263:../../../../../../Drivers/CMSIS/Include/cmsis_gcc.h **** 
 264:../../../../../../Drivers/CMSIS/Include/cmsis_gcc.h **** #if (defined (__ARM_FEATURE_CMSE ) && (__ARM_FEATURE_CMSE == 3))
 265:../../../../../../Drivers/CMSIS/Include/cmsis_gcc.h **** /**
 266:../../../../../../Drivers/CMSIS/Include/cmsis_gcc.h ****   \brief   Get Main Stack Pointer (non-secure)
 267:../../../../../../Drivers/CMSIS/Include/cmsis_gcc.h ****   \details Returns the current value of the non-secure Main Stack Pointer (MSP) when in secure stat
 268:../../../../../../Drivers/CMSIS/Include/cmsis_gcc.h ****   \return               MSP Register value
 269:../../../../../../Drivers/CMSIS/Include/cmsis_gcc.h ****  */
 270:../../../../../../Drivers/CMSIS/Include/cmsis_gcc.h **** __attribute__((always_inline)) __STATIC_INLINE uint32_t __TZ_get_MSP_NS(void)
 271:../../../../../../Drivers/CMSIS/Include/cmsis_gcc.h **** {
 272:../../../../../../Drivers/CMSIS/Include/cmsis_gcc.h ****   register uint32_t result;
 273:../../../../../../Drivers/CMSIS/Include/cmsis_gcc.h **** 
 274:../../../../../../Drivers/CMSIS/Include/cmsis_gcc.h ****   __ASM volatile ("MRS %0, msp_ns" : "=r" (result) );
 275:../../../../../../Drivers/CMSIS/Include/cmsis_gcc.h ****   return(result);
 276:../../../../../../Drivers/CMSIS/Include/cmsis_gcc.h **** }
 277:../../../../../../Drivers/CMSIS/Include/cmsis_gcc.h **** #endif
 278:../../../../../../Drivers/CMSIS/Include/cmsis_gcc.h **** 
 279:../../../../../../Drivers/CMSIS/Include/cmsis_gcc.h **** 
 280:../../../../../../Drivers/CMSIS/Include/cmsis_gcc.h **** /**
 281:../../../../../../Drivers/CMSIS/Include/cmsis_gcc.h ****   \brief   Set Main Stack Pointer
ARM GAS  C:\Users\EBANO_~1\AppData\Local\Temp\ccLhCSjo.s 			page 10


 282:../../../../../../Drivers/CMSIS/Include/cmsis_gcc.h ****   \details Assigns the given value to the Main Stack Pointer (MSP).
 283:../../../../../../Drivers/CMSIS/Include/cmsis_gcc.h ****   \param [in]    topOfMainStack  Main Stack Pointer value to set
 284:../../../../../../Drivers/CMSIS/Include/cmsis_gcc.h ****  */
 285:../../../../../../Drivers/CMSIS/Include/cmsis_gcc.h **** __attribute__((always_inline)) __STATIC_INLINE void __set_MSP(uint32_t topOfMainStack)
 286:../../../../../../Drivers/CMSIS/Include/cmsis_gcc.h **** {
 287:../../../../../../Drivers/CMSIS/Include/cmsis_gcc.h ****   __ASM volatile ("MSR msp, %0" : : "r" (topOfMainStack) : );
 288:../../../../../../Drivers/CMSIS/Include/cmsis_gcc.h **** }
 289:../../../../../../Drivers/CMSIS/Include/cmsis_gcc.h **** 
 290:../../../../../../Drivers/CMSIS/Include/cmsis_gcc.h **** 
 291:../../../../../../Drivers/CMSIS/Include/cmsis_gcc.h **** #if (defined (__ARM_FEATURE_CMSE ) && (__ARM_FEATURE_CMSE == 3))
 292:../../../../../../Drivers/CMSIS/Include/cmsis_gcc.h **** /**
 293:../../../../../../Drivers/CMSIS/Include/cmsis_gcc.h ****   \brief   Set Main Stack Pointer (non-secure)
 294:../../../../../../Drivers/CMSIS/Include/cmsis_gcc.h ****   \details Assigns the given value to the non-secure Main Stack Pointer (MSP) when in secure state.
 295:../../../../../../Drivers/CMSIS/Include/cmsis_gcc.h ****   \param [in]    topOfMainStack  Main Stack Pointer value to set
 296:../../../../../../Drivers/CMSIS/Include/cmsis_gcc.h ****  */
 297:../../../../../../Drivers/CMSIS/Include/cmsis_gcc.h **** __attribute__((always_inline)) __STATIC_INLINE void __TZ_set_MSP_NS(uint32_t topOfMainStack)
 298:../../../../../../Drivers/CMSIS/Include/cmsis_gcc.h **** {
 299:../../../../../../Drivers/CMSIS/Include/cmsis_gcc.h ****   __ASM volatile ("MSR msp_ns, %0" : : "r" (topOfMainStack) : );
 300:../../../../../../Drivers/CMSIS/Include/cmsis_gcc.h **** }
 301:../../../../../../Drivers/CMSIS/Include/cmsis_gcc.h **** #endif
 302:../../../../../../Drivers/CMSIS/Include/cmsis_gcc.h **** 
 303:../../../../../../Drivers/CMSIS/Include/cmsis_gcc.h **** 
 304:../../../../../../Drivers/CMSIS/Include/cmsis_gcc.h **** /**
 305:../../../../../../Drivers/CMSIS/Include/cmsis_gcc.h ****   \brief   Get Priority Mask
 306:../../../../../../Drivers/CMSIS/Include/cmsis_gcc.h ****   \details Returns the current state of the priority mask bit from the Priority Mask Register.
 307:../../../../../../Drivers/CMSIS/Include/cmsis_gcc.h ****   \return               Priority Mask value
 308:../../../../../../Drivers/CMSIS/Include/cmsis_gcc.h ****  */
 309:../../../../../../Drivers/CMSIS/Include/cmsis_gcc.h **** __attribute__((always_inline)) __STATIC_INLINE uint32_t __get_PRIMASK(void)
 310:../../../../../../Drivers/CMSIS/Include/cmsis_gcc.h **** {
 311:../../../../../../Drivers/CMSIS/Include/cmsis_gcc.h ****   uint32_t result;
 312:../../../../../../Drivers/CMSIS/Include/cmsis_gcc.h **** 
 313:../../../../../../Drivers/CMSIS/Include/cmsis_gcc.h ****   __ASM volatile ("MRS %0, primask" : "=r" (result) );
 113              		.loc 2 313 0
 114              		.syntax divided
 115              	@ 313 "../../../../../../Drivers/CMSIS/Include/cmsis_gcc.h" 1
 116 0008 EFF31087 		MRS r7, primask
 117              	@ 0 "" 2
 118              		.thumb
 119              		.syntax unified
 120              	.LBE71:
 121              	.LBE70:
 122              	.LBB72:
 123              	.LBB73:
  96:../../../../../../Drivers/CMSIS/Include/cmsis_gcc.h **** }
 124              		.loc 2 96 0
 125              		.syntax divided
 126              	@ 96 "../../../../../../Drivers/CMSIS/Include/cmsis_gcc.h" 1
 127 000c 72B6     		cpsid i
 128              	@ 0 "" 2
 129              		.thumb
 130              		.syntax unified
 131              	.LBE73:
 132              	.LBE72:
 117:../../../../../../Middlewares/Third_Party/LoRaWAN/Utilities/timeServer.c ****   uint32_t elapsedTime = 0;
 118:../../../../../../Middlewares/Third_Party/LoRaWAN/Utilities/timeServer.c ****   
 119:../../../../../../Middlewares/Third_Party/LoRaWAN/Utilities/timeServer.c ****   BACKUP_PRIMASK();
 120:../../../../../../Middlewares/Third_Party/LoRaWAN/Utilities/timeServer.c ****   
ARM GAS  C:\Users\EBANO_~1\AppData\Local\Temp\ccLhCSjo.s 			page 11


 121:../../../../../../Middlewares/Third_Party/LoRaWAN/Utilities/timeServer.c ****   DISABLE_IRQ( );
 122:../../../../../../Middlewares/Third_Party/LoRaWAN/Utilities/timeServer.c ****   
 123:../../../../../../Middlewares/Third_Party/LoRaWAN/Utilities/timeServer.c **** 
 124:../../../../../../Middlewares/Third_Party/LoRaWAN/Utilities/timeServer.c ****   if( ( obj == NULL ) || ( TimerExists( obj ) == true ) )
 133              		.loc 1 124 0
 134 000e 0028     		cmp	r0, #0
 135 0010 09D0     		beq	.L13
 136              	.LVL3:
 137              	.LBB74:
 138              	.LBB75:
 125:../../../../../../Middlewares/Third_Party/LoRaWAN/Utilities/timeServer.c ****   {
 126:../../../../../../Middlewares/Third_Party/LoRaWAN/Utilities/timeServer.c ****     RESTORE_PRIMASK( );
 127:../../../../../../Middlewares/Third_Party/LoRaWAN/Utilities/timeServer.c ****     return;
 128:../../../../../../Middlewares/Third_Party/LoRaWAN/Utilities/timeServer.c ****   }
 129:../../../../../../Middlewares/Third_Party/LoRaWAN/Utilities/timeServer.c ****   obj->Timestamp = obj->ReloadValue;
 130:../../../../../../Middlewares/Third_Party/LoRaWAN/Utilities/timeServer.c ****   obj->IsStarted = true;
 131:../../../../../../Middlewares/Third_Party/LoRaWAN/Utilities/timeServer.c ****   obj->IsNext2Expire = false;
 132:../../../../../../Middlewares/Third_Party/LoRaWAN/Utilities/timeServer.c **** 
 133:../../../../../../Middlewares/Third_Party/LoRaWAN/Utilities/timeServer.c ****   if( TimerListHead == NULL )
 134:../../../../../../Middlewares/Third_Party/LoRaWAN/Utilities/timeServer.c ****   {
 135:../../../../../../Middlewares/Third_Party/LoRaWAN/Utilities/timeServer.c ****     HW_RTC_SetTimerContext( );
 136:../../../../../../Middlewares/Third_Party/LoRaWAN/Utilities/timeServer.c ****     TimerInsertNewHeadTimer( obj ); // insert a timeout at now+obj->Timestamp
 137:../../../../../../Middlewares/Third_Party/LoRaWAN/Utilities/timeServer.c ****   }
 138:../../../../../../Middlewares/Third_Party/LoRaWAN/Utilities/timeServer.c ****   else 
 139:../../../../../../Middlewares/Third_Party/LoRaWAN/Utilities/timeServer.c ****   {
 140:../../../../../../Middlewares/Third_Party/LoRaWAN/Utilities/timeServer.c ****     elapsedTime = HW_RTC_GetTimerElapsedTime( );
 141:../../../../../../Middlewares/Third_Party/LoRaWAN/Utilities/timeServer.c ****     obj->Timestamp += elapsedTime;
 142:../../../../../../Middlewares/Third_Party/LoRaWAN/Utilities/timeServer.c ****   
 143:../../../../../../Middlewares/Third_Party/LoRaWAN/Utilities/timeServer.c ****     if( obj->Timestamp < TimerListHead->Timestamp )
 144:../../../../../../Middlewares/Third_Party/LoRaWAN/Utilities/timeServer.c ****     {
 145:../../../../../../Middlewares/Third_Party/LoRaWAN/Utilities/timeServer.c ****       TimerInsertNewHeadTimer( obj);
 146:../../../../../../Middlewares/Third_Party/LoRaWAN/Utilities/timeServer.c ****     }
 147:../../../../../../Middlewares/Third_Party/LoRaWAN/Utilities/timeServer.c ****     else
 148:../../../../../../Middlewares/Third_Party/LoRaWAN/Utilities/timeServer.c ****     {
 149:../../../../../../Middlewares/Third_Party/LoRaWAN/Utilities/timeServer.c ****       TimerInsertTimer( obj);
 150:../../../../../../Middlewares/Third_Party/LoRaWAN/Utilities/timeServer.c ****     }
 151:../../../../../../Middlewares/Third_Party/LoRaWAN/Utilities/timeServer.c ****   }
 152:../../../../../../Middlewares/Third_Party/LoRaWAN/Utilities/timeServer.c ****   RESTORE_PRIMASK( );
 153:../../../../../../Middlewares/Third_Party/LoRaWAN/Utilities/timeServer.c **** }
 154:../../../../../../Middlewares/Third_Party/LoRaWAN/Utilities/timeServer.c **** 
 155:../../../../../../Middlewares/Third_Party/LoRaWAN/Utilities/timeServer.c **** 
 156:../../../../../../Middlewares/Third_Party/LoRaWAN/Utilities/timeServer.c **** 
 157:../../../../../../Middlewares/Third_Party/LoRaWAN/Utilities/timeServer.c **** bool TimerIsStarted( TimerEvent_t *obj )
 158:../../../../../../Middlewares/Third_Party/LoRaWAN/Utilities/timeServer.c **** {
 159:../../../../../../Middlewares/Third_Party/LoRaWAN/Utilities/timeServer.c ****   return obj->IsStarted;
 160:../../../../../../Middlewares/Third_Party/LoRaWAN/Utilities/timeServer.c **** }
 161:../../../../../../Middlewares/Third_Party/LoRaWAN/Utilities/timeServer.c **** 
 162:../../../../../../Middlewares/Third_Party/LoRaWAN/Utilities/timeServer.c **** void TimerIrqHandler( void )
 163:../../../../../../Middlewares/Third_Party/LoRaWAN/Utilities/timeServer.c **** {
 164:../../../../../../Middlewares/Third_Party/LoRaWAN/Utilities/timeServer.c ****   TimerEvent_t* cur;
 165:../../../../../../Middlewares/Third_Party/LoRaWAN/Utilities/timeServer.c ****   TimerEvent_t* next;
 166:../../../../../../Middlewares/Third_Party/LoRaWAN/Utilities/timeServer.c ****   
 167:../../../../../../Middlewares/Third_Party/LoRaWAN/Utilities/timeServer.c **** 
 168:../../../../../../Middlewares/Third_Party/LoRaWAN/Utilities/timeServer.c ****   
 169:../../../../../../Middlewares/Third_Party/LoRaWAN/Utilities/timeServer.c ****   uint32_t old =  HW_RTC_GetTimerContext( );
 170:../../../../../../Middlewares/Third_Party/LoRaWAN/Utilities/timeServer.c ****   uint32_t now =  HW_RTC_SetTimerContext( );
 171:../../../../../../Middlewares/Third_Party/LoRaWAN/Utilities/timeServer.c ****   uint32_t DeltaContext = now - old; //intentionnal wrap around
ARM GAS  C:\Users\EBANO_~1\AppData\Local\Temp\ccLhCSjo.s 			page 12


 172:../../../../../../Middlewares/Third_Party/LoRaWAN/Utilities/timeServer.c ****   
 173:../../../../../../Middlewares/Third_Party/LoRaWAN/Utilities/timeServer.c ****   /* Update timeStamp based upon new Time Reference*/
 174:../../../../../../Middlewares/Third_Party/LoRaWAN/Utilities/timeServer.c ****   /* because delta context should never exceed 2^32*/
 175:../../../../../../Middlewares/Third_Party/LoRaWAN/Utilities/timeServer.c ****   if ( TimerListHead != NULL )
 176:../../../../../../Middlewares/Third_Party/LoRaWAN/Utilities/timeServer.c ****   {
 177:../../../../../../Middlewares/Third_Party/LoRaWAN/Utilities/timeServer.c ****     for (cur=TimerListHead; cur->Next != NULL; cur= cur->Next)
 178:../../../../../../Middlewares/Third_Party/LoRaWAN/Utilities/timeServer.c ****     {
 179:../../../../../../Middlewares/Third_Party/LoRaWAN/Utilities/timeServer.c ****       next =cur->Next;
 180:../../../../../../Middlewares/Third_Party/LoRaWAN/Utilities/timeServer.c ****       if (next->Timestamp > DeltaContext)
 181:../../../../../../Middlewares/Third_Party/LoRaWAN/Utilities/timeServer.c ****       {
 182:../../../../../../Middlewares/Third_Party/LoRaWAN/Utilities/timeServer.c ****         next->Timestamp -= DeltaContext;
 183:../../../../../../Middlewares/Third_Party/LoRaWAN/Utilities/timeServer.c ****       }
 184:../../../../../../Middlewares/Third_Party/LoRaWAN/Utilities/timeServer.c ****       else
 185:../../../../../../Middlewares/Third_Party/LoRaWAN/Utilities/timeServer.c ****       {
 186:../../../../../../Middlewares/Third_Party/LoRaWAN/Utilities/timeServer.c ****         next->Timestamp = 0 ;
 187:../../../../../../Middlewares/Third_Party/LoRaWAN/Utilities/timeServer.c ****       }
 188:../../../../../../Middlewares/Third_Party/LoRaWAN/Utilities/timeServer.c ****     }
 189:../../../../../../Middlewares/Third_Party/LoRaWAN/Utilities/timeServer.c ****   }
 190:../../../../../../Middlewares/Third_Party/LoRaWAN/Utilities/timeServer.c ****   
 191:../../../../../../Middlewares/Third_Party/LoRaWAN/Utilities/timeServer.c ****   /* execute imediately the alarm callback */
 192:../../../../../../Middlewares/Third_Party/LoRaWAN/Utilities/timeServer.c ****   if ( TimerListHead != NULL )
 193:../../../../../../Middlewares/Third_Party/LoRaWAN/Utilities/timeServer.c ****   {
 194:../../../../../../Middlewares/Third_Party/LoRaWAN/Utilities/timeServer.c ****     cur = TimerListHead;
 195:../../../../../../Middlewares/Third_Party/LoRaWAN/Utilities/timeServer.c ****     TimerListHead = TimerListHead->Next;
 196:../../../../../../Middlewares/Third_Party/LoRaWAN/Utilities/timeServer.c ****     cur->IsStarted = false;
 197:../../../../../../Middlewares/Third_Party/LoRaWAN/Utilities/timeServer.c ****     exec_cb( cur->Callback, cur->Context );
 198:../../../../../../Middlewares/Third_Party/LoRaWAN/Utilities/timeServer.c ****   }
 199:../../../../../../Middlewares/Third_Party/LoRaWAN/Utilities/timeServer.c **** 
 200:../../../../../../Middlewares/Third_Party/LoRaWAN/Utilities/timeServer.c **** 
 201:../../../../../../Middlewares/Third_Party/LoRaWAN/Utilities/timeServer.c ****   // remove all the expired object from the list
 202:../../../../../../Middlewares/Third_Party/LoRaWAN/Utilities/timeServer.c ****   while( ( TimerListHead != NULL ) && ( TimerListHead->Timestamp < HW_RTC_GetTimerElapsedTime(  )  
 203:../../../../../../Middlewares/Third_Party/LoRaWAN/Utilities/timeServer.c ****   {
 204:../../../../../../Middlewares/Third_Party/LoRaWAN/Utilities/timeServer.c ****    cur = TimerListHead;
 205:../../../../../../Middlewares/Third_Party/LoRaWAN/Utilities/timeServer.c ****    TimerListHead = TimerListHead->Next;
 206:../../../../../../Middlewares/Third_Party/LoRaWAN/Utilities/timeServer.c ****    cur->IsStarted = false;
 207:../../../../../../Middlewares/Third_Party/LoRaWAN/Utilities/timeServer.c ****    exec_cb( cur->Callback, cur->Context );
 208:../../../../../../Middlewares/Third_Party/LoRaWAN/Utilities/timeServer.c ****   }
 209:../../../../../../Middlewares/Third_Party/LoRaWAN/Utilities/timeServer.c **** 
 210:../../../../../../Middlewares/Third_Party/LoRaWAN/Utilities/timeServer.c ****   /* start the next TimerListHead if it exists AND NOT running */
 211:../../../../../../Middlewares/Third_Party/LoRaWAN/Utilities/timeServer.c ****   if( ( TimerListHead != NULL ) && ( TimerListHead->IsNext2Expire == false ) )
 212:../../../../../../Middlewares/Third_Party/LoRaWAN/Utilities/timeServer.c ****   {
 213:../../../../../../Middlewares/Third_Party/LoRaWAN/Utilities/timeServer.c ****     TimerSetTimeout( TimerListHead );
 214:../../../../../../Middlewares/Third_Party/LoRaWAN/Utilities/timeServer.c ****   }
 215:../../../../../../Middlewares/Third_Party/LoRaWAN/Utilities/timeServer.c **** }
 216:../../../../../../Middlewares/Third_Party/LoRaWAN/Utilities/timeServer.c **** 
 217:../../../../../../Middlewares/Third_Party/LoRaWAN/Utilities/timeServer.c **** void TimerStop( TimerEvent_t *obj ) 
 218:../../../../../../Middlewares/Third_Party/LoRaWAN/Utilities/timeServer.c **** {
 219:../../../../../../Middlewares/Third_Party/LoRaWAN/Utilities/timeServer.c ****   BACKUP_PRIMASK();
 220:../../../../../../Middlewares/Third_Party/LoRaWAN/Utilities/timeServer.c ****   
 221:../../../../../../Middlewares/Third_Party/LoRaWAN/Utilities/timeServer.c ****   DISABLE_IRQ( );
 222:../../../../../../Middlewares/Third_Party/LoRaWAN/Utilities/timeServer.c ****   
 223:../../../../../../Middlewares/Third_Party/LoRaWAN/Utilities/timeServer.c ****   TimerEvent_t* prev = TimerListHead;
 224:../../../../../../Middlewares/Third_Party/LoRaWAN/Utilities/timeServer.c ****   TimerEvent_t* cur = TimerListHead;
 225:../../../../../../Middlewares/Third_Party/LoRaWAN/Utilities/timeServer.c **** 
 226:../../../../../../Middlewares/Third_Party/LoRaWAN/Utilities/timeServer.c ****   // List is empty or the Obj to stop does not exist 
 227:../../../../../../Middlewares/Third_Party/LoRaWAN/Utilities/timeServer.c ****   if( ( TimerListHead == NULL ) || ( obj == NULL ) )
 228:../../../../../../Middlewares/Third_Party/LoRaWAN/Utilities/timeServer.c ****   {
ARM GAS  C:\Users\EBANO_~1\AppData\Local\Temp\ccLhCSjo.s 			page 13


 229:../../../../../../Middlewares/Third_Party/LoRaWAN/Utilities/timeServer.c ****     RESTORE_PRIMASK( );
 230:../../../../../../Middlewares/Third_Party/LoRaWAN/Utilities/timeServer.c ****     return;
 231:../../../../../../Middlewares/Third_Party/LoRaWAN/Utilities/timeServer.c ****   }
 232:../../../../../../Middlewares/Third_Party/LoRaWAN/Utilities/timeServer.c **** 
 233:../../../../../../Middlewares/Third_Party/LoRaWAN/Utilities/timeServer.c ****   obj->IsStarted = false;
 234:../../../../../../Middlewares/Third_Party/LoRaWAN/Utilities/timeServer.c **** 
 235:../../../../../../Middlewares/Third_Party/LoRaWAN/Utilities/timeServer.c ****   if( TimerListHead == obj ) // Stop the Head                  
 236:../../../../../../Middlewares/Third_Party/LoRaWAN/Utilities/timeServer.c ****   {
 237:../../../../../../Middlewares/Third_Party/LoRaWAN/Utilities/timeServer.c ****     if( TimerListHead->IsNext2Expire == true ) // The head is already running 
 238:../../../../../../Middlewares/Third_Party/LoRaWAN/Utilities/timeServer.c ****     {  
 239:../../../../../../Middlewares/Third_Party/LoRaWAN/Utilities/timeServer.c **** 	  
 240:../../../../../../Middlewares/Third_Party/LoRaWAN/Utilities/timeServer.c ****       TimerListHead->IsNext2Expire = false;
 241:../../../../../../Middlewares/Third_Party/LoRaWAN/Utilities/timeServer.c ****       if( TimerListHead->Next != NULL )
 242:../../../../../../Middlewares/Third_Party/LoRaWAN/Utilities/timeServer.c ****       {
 243:../../../../../../Middlewares/Third_Party/LoRaWAN/Utilities/timeServer.c ****         TimerListHead = TimerListHead->Next;
 244:../../../../../../Middlewares/Third_Party/LoRaWAN/Utilities/timeServer.c ****         TimerSetTimeout( TimerListHead );
 245:../../../../../../Middlewares/Third_Party/LoRaWAN/Utilities/timeServer.c ****       }
 246:../../../../../../Middlewares/Third_Party/LoRaWAN/Utilities/timeServer.c ****       else
 247:../../../../../../Middlewares/Third_Party/LoRaWAN/Utilities/timeServer.c ****       {
 248:../../../../../../Middlewares/Third_Party/LoRaWAN/Utilities/timeServer.c ****         HW_RTC_StopAlarm( );
 249:../../../../../../Middlewares/Third_Party/LoRaWAN/Utilities/timeServer.c ****         TimerListHead = NULL;
 250:../../../../../../Middlewares/Third_Party/LoRaWAN/Utilities/timeServer.c ****       }
 251:../../../../../../Middlewares/Third_Party/LoRaWAN/Utilities/timeServer.c ****     }
 252:../../../../../../Middlewares/Third_Party/LoRaWAN/Utilities/timeServer.c ****     else // Stop the head before it is started
 253:../../../../../../Middlewares/Third_Party/LoRaWAN/Utilities/timeServer.c ****     {   
 254:../../../../../../Middlewares/Third_Party/LoRaWAN/Utilities/timeServer.c ****       if( TimerListHead->Next != NULL )   
 255:../../../../../../Middlewares/Third_Party/LoRaWAN/Utilities/timeServer.c ****       {
 256:../../../../../../Middlewares/Third_Party/LoRaWAN/Utilities/timeServer.c ****         TimerListHead = TimerListHead->Next;
 257:../../../../../../Middlewares/Third_Party/LoRaWAN/Utilities/timeServer.c ****       }
 258:../../../../../../Middlewares/Third_Party/LoRaWAN/Utilities/timeServer.c ****       else
 259:../../../../../../Middlewares/Third_Party/LoRaWAN/Utilities/timeServer.c ****       {
 260:../../../../../../Middlewares/Third_Party/LoRaWAN/Utilities/timeServer.c ****         TimerListHead = NULL;
 261:../../../../../../Middlewares/Third_Party/LoRaWAN/Utilities/timeServer.c ****       }
 262:../../../../../../Middlewares/Third_Party/LoRaWAN/Utilities/timeServer.c ****     }
 263:../../../../../../Middlewares/Third_Party/LoRaWAN/Utilities/timeServer.c ****   }
 264:../../../../../../Middlewares/Third_Party/LoRaWAN/Utilities/timeServer.c ****   else // Stop an object within the list
 265:../../../../../../Middlewares/Third_Party/LoRaWAN/Utilities/timeServer.c ****   {      
 266:../../../../../../Middlewares/Third_Party/LoRaWAN/Utilities/timeServer.c ****     while( cur != NULL )
 267:../../../../../../Middlewares/Third_Party/LoRaWAN/Utilities/timeServer.c ****     {
 268:../../../../../../Middlewares/Third_Party/LoRaWAN/Utilities/timeServer.c ****       if( cur == obj )
 269:../../../../../../Middlewares/Third_Party/LoRaWAN/Utilities/timeServer.c ****       {
 270:../../../../../../Middlewares/Third_Party/LoRaWAN/Utilities/timeServer.c ****         if( cur->Next != NULL )
 271:../../../../../../Middlewares/Third_Party/LoRaWAN/Utilities/timeServer.c ****         {
 272:../../../../../../Middlewares/Third_Party/LoRaWAN/Utilities/timeServer.c ****           cur = cur->Next;
 273:../../../../../../Middlewares/Third_Party/LoRaWAN/Utilities/timeServer.c ****           prev->Next = cur;
 274:../../../../../../Middlewares/Third_Party/LoRaWAN/Utilities/timeServer.c ****         }
 275:../../../../../../Middlewares/Third_Party/LoRaWAN/Utilities/timeServer.c ****         else
 276:../../../../../../Middlewares/Third_Party/LoRaWAN/Utilities/timeServer.c ****         {
 277:../../../../../../Middlewares/Third_Party/LoRaWAN/Utilities/timeServer.c ****           cur = NULL;
 278:../../../../../../Middlewares/Third_Party/LoRaWAN/Utilities/timeServer.c ****           prev->Next = cur;
 279:../../../../../../Middlewares/Third_Party/LoRaWAN/Utilities/timeServer.c ****         }
 280:../../../../../../Middlewares/Third_Party/LoRaWAN/Utilities/timeServer.c ****         break;
 281:../../../../../../Middlewares/Third_Party/LoRaWAN/Utilities/timeServer.c ****       }
 282:../../../../../../Middlewares/Third_Party/LoRaWAN/Utilities/timeServer.c ****       else
 283:../../../../../../Middlewares/Third_Party/LoRaWAN/Utilities/timeServer.c ****       {
 284:../../../../../../Middlewares/Third_Party/LoRaWAN/Utilities/timeServer.c ****         prev = cur;
 285:../../../../../../Middlewares/Third_Party/LoRaWAN/Utilities/timeServer.c ****         cur = cur->Next;
ARM GAS  C:\Users\EBANO_~1\AppData\Local\Temp\ccLhCSjo.s 			page 14


 286:../../../../../../Middlewares/Third_Party/LoRaWAN/Utilities/timeServer.c ****       }
 287:../../../../../../Middlewares/Third_Party/LoRaWAN/Utilities/timeServer.c ****     }   
 288:../../../../../../Middlewares/Third_Party/LoRaWAN/Utilities/timeServer.c ****   }
 289:../../../../../../Middlewares/Third_Party/LoRaWAN/Utilities/timeServer.c ****   
 290:../../../../../../Middlewares/Third_Party/LoRaWAN/Utilities/timeServer.c ****   RESTORE_PRIMASK( );
 291:../../../../../../Middlewares/Third_Party/LoRaWAN/Utilities/timeServer.c **** }  
 292:../../../../../../Middlewares/Third_Party/LoRaWAN/Utilities/timeServer.c ****   
 293:../../../../../../Middlewares/Third_Party/LoRaWAN/Utilities/timeServer.c **** 
 294:../../../../../../Middlewares/Third_Party/LoRaWAN/Utilities/timeServer.c **** 
 295:../../../../../../Middlewares/Third_Party/LoRaWAN/Utilities/timeServer.c **** void TimerReset( TimerEvent_t *obj )
 296:../../../../../../Middlewares/Third_Party/LoRaWAN/Utilities/timeServer.c **** {
 297:../../../../../../Middlewares/Third_Party/LoRaWAN/Utilities/timeServer.c ****   TimerStop( obj );
 298:../../../../../../Middlewares/Third_Party/LoRaWAN/Utilities/timeServer.c ****   TimerStart( obj );
 299:../../../../../../Middlewares/Third_Party/LoRaWAN/Utilities/timeServer.c **** }
 300:../../../../../../Middlewares/Third_Party/LoRaWAN/Utilities/timeServer.c **** 
 301:../../../../../../Middlewares/Third_Party/LoRaWAN/Utilities/timeServer.c **** void TimerSetValue( TimerEvent_t *obj, uint32_t value )
 302:../../../../../../Middlewares/Third_Party/LoRaWAN/Utilities/timeServer.c **** {
 303:../../../../../../Middlewares/Third_Party/LoRaWAN/Utilities/timeServer.c ****   uint32_t minValue = 0;
 304:../../../../../../Middlewares/Third_Party/LoRaWAN/Utilities/timeServer.c ****   uint32_t ticks = HW_RTC_ms2Tick( value );
 305:../../../../../../Middlewares/Third_Party/LoRaWAN/Utilities/timeServer.c **** 
 306:../../../../../../Middlewares/Third_Party/LoRaWAN/Utilities/timeServer.c ****   TimerStop( obj );
 307:../../../../../../Middlewares/Third_Party/LoRaWAN/Utilities/timeServer.c **** 
 308:../../../../../../Middlewares/Third_Party/LoRaWAN/Utilities/timeServer.c ****   minValue = HW_RTC_GetMinimumTimeout( );
 309:../../../../../../Middlewares/Third_Party/LoRaWAN/Utilities/timeServer.c ****   
 310:../../../../../../Middlewares/Third_Party/LoRaWAN/Utilities/timeServer.c ****   if( ticks < minValue )
 311:../../../../../../Middlewares/Third_Party/LoRaWAN/Utilities/timeServer.c ****   {
 312:../../../../../../Middlewares/Third_Party/LoRaWAN/Utilities/timeServer.c ****     ticks = minValue;
 313:../../../../../../Middlewares/Third_Party/LoRaWAN/Utilities/timeServer.c ****   }
 314:../../../../../../Middlewares/Third_Party/LoRaWAN/Utilities/timeServer.c **** 
 315:../../../../../../Middlewares/Third_Party/LoRaWAN/Utilities/timeServer.c ****   obj->Timestamp = ticks;
 316:../../../../../../Middlewares/Third_Party/LoRaWAN/Utilities/timeServer.c ****   obj->ReloadValue = ticks;
 317:../../../../../../Middlewares/Third_Party/LoRaWAN/Utilities/timeServer.c **** }
 318:../../../../../../Middlewares/Third_Party/LoRaWAN/Utilities/timeServer.c **** 
 319:../../../../../../Middlewares/Third_Party/LoRaWAN/Utilities/timeServer.c **** TimerTime_t TimerGetCurrentTime( void )
 320:../../../../../../Middlewares/Third_Party/LoRaWAN/Utilities/timeServer.c **** {
 321:../../../../../../Middlewares/Third_Party/LoRaWAN/Utilities/timeServer.c ****   uint32_t now = HW_RTC_GetTimerValue( );
 322:../../../../../../Middlewares/Third_Party/LoRaWAN/Utilities/timeServer.c ****   return  HW_RTC_Tick2ms(now);
 323:../../../../../../Middlewares/Third_Party/LoRaWAN/Utilities/timeServer.c **** }
 324:../../../../../../Middlewares/Third_Party/LoRaWAN/Utilities/timeServer.c **** 
 325:../../../../../../Middlewares/Third_Party/LoRaWAN/Utilities/timeServer.c **** TimerTime_t TimerGetElapsedTime( TimerTime_t past )
 326:../../../../../../Middlewares/Third_Party/LoRaWAN/Utilities/timeServer.c **** {
 327:../../../../../../Middlewares/Third_Party/LoRaWAN/Utilities/timeServer.c ****   uint32_t nowInTicks = HW_RTC_GetTimerValue( );
 328:../../../../../../Middlewares/Third_Party/LoRaWAN/Utilities/timeServer.c ****   uint32_t pastInTicks = HW_RTC_ms2Tick( past );
 329:../../../../../../Middlewares/Third_Party/LoRaWAN/Utilities/timeServer.c ****   /* intentional wrap around. Works Ok if tick duation below 1ms */
 330:../../../../../../Middlewares/Third_Party/LoRaWAN/Utilities/timeServer.c ****   return HW_RTC_Tick2ms( nowInTicks- pastInTicks );
 331:../../../../../../Middlewares/Third_Party/LoRaWAN/Utilities/timeServer.c **** }
 332:../../../../../../Middlewares/Third_Party/LoRaWAN/Utilities/timeServer.c **** 
 333:../../../../../../Middlewares/Third_Party/LoRaWAN/Utilities/timeServer.c **** static bool TimerExists( TimerEvent_t *obj )
 334:../../../../../../Middlewares/Third_Party/LoRaWAN/Utilities/timeServer.c **** {
 335:../../../../../../Middlewares/Third_Party/LoRaWAN/Utilities/timeServer.c ****   TimerEvent_t* cur = TimerListHead;
 139              		.loc 1 335 0
 140 0012 304E     		ldr	r6, .L39
 141 0014 3468     		ldr	r4, [r6]
 142              	.LVL4:
 336:../../../../../../Middlewares/Third_Party/LoRaWAN/Utilities/timeServer.c **** 
 337:../../../../../../Middlewares/Third_Party/LoRaWAN/Utilities/timeServer.c ****   while( cur != NULL )
 143              		.loc 1 337 0
ARM GAS  C:\Users\EBANO_~1\AppData\Local\Temp\ccLhCSjo.s 			page 15


 144 0016 002C     		cmp	r4, #0
 145 0018 03D1     		bne	.L8
 146 001a 2BE0     		b	.L6
 147              	.L35:
 338:../../../../../../Middlewares/Third_Party/LoRaWAN/Utilities/timeServer.c ****   {
 339:../../../../../../Middlewares/Third_Party/LoRaWAN/Utilities/timeServer.c ****     if( cur == obj )
 340:../../../../../../Middlewares/Third_Party/LoRaWAN/Utilities/timeServer.c ****     {
 341:../../../../../../Middlewares/Third_Party/LoRaWAN/Utilities/timeServer.c ****       return true;
 342:../../../../../../Middlewares/Third_Party/LoRaWAN/Utilities/timeServer.c ****     }
 343:../../../../../../Middlewares/Third_Party/LoRaWAN/Utilities/timeServer.c ****     cur = cur->Next;
 148              		.loc 1 343 0
 149 001c 6469     		ldr	r4, [r4, #20]
 150              	.LVL5:
 337:../../../../../../Middlewares/Third_Party/LoRaWAN/Utilities/timeServer.c ****   {
 151              		.loc 1 337 0
 152 001e 002C     		cmp	r4, #0
 153 0020 06D0     		beq	.L34
 154              	.L8:
 339:../../../../../../Middlewares/Third_Party/LoRaWAN/Utilities/timeServer.c ****     {
 155              		.loc 1 339 0
 156 0022 A542     		cmp	r5, r4
 157 0024 FAD1     		bne	.L35
 158              	.LVL6:
 159              	.L13:
 160              	.LBE75:
 161              	.LBE74:
 162              	.LBB76:
 163              	.LBB77:
 314:../../../../../../Drivers/CMSIS/Include/cmsis_gcc.h ****   return(result);
 315:../../../../../../Drivers/CMSIS/Include/cmsis_gcc.h **** }
 316:../../../../../../Drivers/CMSIS/Include/cmsis_gcc.h **** 
 317:../../../../../../Drivers/CMSIS/Include/cmsis_gcc.h **** 
 318:../../../../../../Drivers/CMSIS/Include/cmsis_gcc.h **** #if (defined (__ARM_FEATURE_CMSE ) && (__ARM_FEATURE_CMSE == 3))
 319:../../../../../../Drivers/CMSIS/Include/cmsis_gcc.h **** /**
 320:../../../../../../Drivers/CMSIS/Include/cmsis_gcc.h ****   \brief   Get Priority Mask (non-secure)
 321:../../../../../../Drivers/CMSIS/Include/cmsis_gcc.h ****   \details Returns the current state of the non-secure priority mask bit from the Priority Mask Reg
 322:../../../../../../Drivers/CMSIS/Include/cmsis_gcc.h ****   \return               Priority Mask value
 323:../../../../../../Drivers/CMSIS/Include/cmsis_gcc.h ****  */
 324:../../../../../../Drivers/CMSIS/Include/cmsis_gcc.h **** __attribute__((always_inline)) __STATIC_INLINE uint32_t __TZ_get_PRIMASK_NS(void)
 325:../../../../../../Drivers/CMSIS/Include/cmsis_gcc.h **** {
 326:../../../../../../Drivers/CMSIS/Include/cmsis_gcc.h ****   uint32_t result;
 327:../../../../../../Drivers/CMSIS/Include/cmsis_gcc.h **** 
 328:../../../../../../Drivers/CMSIS/Include/cmsis_gcc.h ****   __ASM volatile ("MRS %0, primask_ns" : "=r" (result) );
 329:../../../../../../Drivers/CMSIS/Include/cmsis_gcc.h ****   return(result);
 330:../../../../../../Drivers/CMSIS/Include/cmsis_gcc.h **** }
 331:../../../../../../Drivers/CMSIS/Include/cmsis_gcc.h **** #endif
 332:../../../../../../Drivers/CMSIS/Include/cmsis_gcc.h **** 
 333:../../../../../../Drivers/CMSIS/Include/cmsis_gcc.h **** 
 334:../../../../../../Drivers/CMSIS/Include/cmsis_gcc.h **** /**
 335:../../../../../../Drivers/CMSIS/Include/cmsis_gcc.h ****   \brief   Set Priority Mask
 336:../../../../../../Drivers/CMSIS/Include/cmsis_gcc.h ****   \details Assigns the given value to the Priority Mask Register.
 337:../../../../../../Drivers/CMSIS/Include/cmsis_gcc.h ****   \param [in]    priMask  Priority Mask
 338:../../../../../../Drivers/CMSIS/Include/cmsis_gcc.h ****  */
 339:../../../../../../Drivers/CMSIS/Include/cmsis_gcc.h **** __attribute__((always_inline)) __STATIC_INLINE void __set_PRIMASK(uint32_t priMask)
 340:../../../../../../Drivers/CMSIS/Include/cmsis_gcc.h **** {
 341:../../../../../../Drivers/CMSIS/Include/cmsis_gcc.h ****   __ASM volatile ("MSR primask, %0" : : "r" (priMask) : "memory");
 164              		.loc 2 341 0
ARM GAS  C:\Users\EBANO_~1\AppData\Local\Temp\ccLhCSjo.s 			page 16


 165              		.syntax divided
 166              	@ 341 "../../../../../../Drivers/CMSIS/Include/cmsis_gcc.h" 1
 167 0026 87F31088 		MSR primask, r7
 168              	@ 0 "" 2
 169              		.thumb
 170              		.syntax unified
 171              	.LBE77:
 172              	.LBE76:
 153:../../../../../../Middlewares/Third_Party/LoRaWAN/Utilities/timeServer.c **** 
 173              		.loc 1 153 0
 174              		@ sp needed
 175              	.LVL7:
 176              	.LVL8:
 177 002a 04BC     		pop	{r2}
 178 002c 9046     		mov	r8, r2
 179 002e F0BD     		pop	{r4, r5, r6, r7, pc}
 180              	.LVL9:
 181              	.L34:
 129:../../../../../../Middlewares/Third_Party/LoRaWAN/Utilities/timeServer.c ****   obj->IsStarted = true;
 182              		.loc 1 129 0
 183 0030 6B68     		ldr	r3, [r5, #4]
 131:../../../../../../Middlewares/Third_Party/LoRaWAN/Utilities/timeServer.c **** 
 184              		.loc 1 131 0
 185 0032 6C72     		strb	r4, [r5, #9]
 129:../../../../../../Middlewares/Third_Party/LoRaWAN/Utilities/timeServer.c ****   obj->IsStarted = true;
 186              		.loc 1 129 0
 187 0034 2B60     		str	r3, [r5]
 130:../../../../../../Middlewares/Third_Party/LoRaWAN/Utilities/timeServer.c ****   obj->IsNext2Expire = false;
 188              		.loc 1 130 0
 189 0036 0123     		movs	r3, #1
 190 0038 2B72     		strb	r3, [r5, #8]
 191 003a 9846     		mov	r8, r3
 140:../../../../../../Middlewares/Third_Party/LoRaWAN/Utilities/timeServer.c ****     obj->Timestamp += elapsedTime;
 192              		.loc 1 140 0
 193 003c FFF7FEFF 		bl	HW_RTC_GetTimerElapsedTime
 194              	.LVL10:
 141:../../../../../../Middlewares/Third_Party/LoRaWAN/Utilities/timeServer.c ****   
 195              		.loc 1 141 0
 196 0040 2B68     		ldr	r3, [r5]
 143:../../../../../../Middlewares/Third_Party/LoRaWAN/Utilities/timeServer.c ****     {
 197              		.loc 1 143 0
 198 0042 3168     		ldr	r1, [r6]
 141:../../../../../../Middlewares/Third_Party/LoRaWAN/Utilities/timeServer.c ****   
 199              		.loc 1 141 0
 200 0044 9C46     		mov	ip, r3
 201 0046 6044     		add	r0, r0, ip
 202              	.LVL11:
 203 0048 2860     		str	r0, [r5]
 143:../../../../../../Middlewares/Third_Party/LoRaWAN/Utilities/timeServer.c ****     {
 204              		.loc 1 143 0
 205 004a 0B68     		ldr	r3, [r1]
 206 004c 9842     		cmp	r0, r3
 207 004e 2DD3     		bcc	.L36
 208              	.LVL12:
 209              	.LBB78:
 210              	.LBB79:
 344:../../../../../../Middlewares/Third_Party/LoRaWAN/Utilities/timeServer.c ****   }
ARM GAS  C:\Users\EBANO_~1\AppData\Local\Temp\ccLhCSjo.s 			page 17


 345:../../../../../../Middlewares/Third_Party/LoRaWAN/Utilities/timeServer.c ****   return false;
 346:../../../../../../Middlewares/Third_Party/LoRaWAN/Utilities/timeServer.c **** }
 347:../../../../../../Middlewares/Third_Party/LoRaWAN/Utilities/timeServer.c **** static void TimerSetTimeout( TimerEvent_t *obj )
 348:../../../../../../Middlewares/Third_Party/LoRaWAN/Utilities/timeServer.c **** {
 349:../../../../../../Middlewares/Third_Party/LoRaWAN/Utilities/timeServer.c ****   int32_t minTicks= HW_RTC_GetMinimumTimeout( );
 350:../../../../../../Middlewares/Third_Party/LoRaWAN/Utilities/timeServer.c ****   obj->IsNext2Expire = true; 
 351:../../../../../../Middlewares/Third_Party/LoRaWAN/Utilities/timeServer.c **** 
 352:../../../../../../Middlewares/Third_Party/LoRaWAN/Utilities/timeServer.c ****   // In case deadline too soon
 353:../../../../../../Middlewares/Third_Party/LoRaWAN/Utilities/timeServer.c ****   if(obj->Timestamp  < (HW_RTC_GetTimerElapsedTime(  ) + minTicks) )
 354:../../../../../../Middlewares/Third_Party/LoRaWAN/Utilities/timeServer.c ****   {
 355:../../../../../../Middlewares/Third_Party/LoRaWAN/Utilities/timeServer.c ****     obj->Timestamp = HW_RTC_GetTimerElapsedTime(  ) + minTicks;
 356:../../../../../../Middlewares/Third_Party/LoRaWAN/Utilities/timeServer.c ****   }
 357:../../../../../../Middlewares/Third_Party/LoRaWAN/Utilities/timeServer.c ****   HW_RTC_SetAlarm( obj->Timestamp );
 358:../../../../../../Middlewares/Third_Party/LoRaWAN/Utilities/timeServer.c **** }
 359:../../../../../../Middlewares/Third_Party/LoRaWAN/Utilities/timeServer.c **** 
 360:../../../../../../Middlewares/Third_Party/LoRaWAN/Utilities/timeServer.c **** TimerTime_t TimerTempCompensation( TimerTime_t period, float temperature )
 361:../../../../../../Middlewares/Third_Party/LoRaWAN/Utilities/timeServer.c **** {
 362:../../../../../../Middlewares/Third_Party/LoRaWAN/Utilities/timeServer.c ****     return RtcTempCompensation( period, temperature );
 363:../../../../../../Middlewares/Third_Party/LoRaWAN/Utilities/timeServer.c **** }
 364:../../../../../../Middlewares/Third_Party/LoRaWAN/Utilities/timeServer.c **** 
 365:../../../../../../Middlewares/Third_Party/LoRaWAN/Utilities/timeServer.c **** 
 366:../../../../../../Middlewares/Third_Party/LoRaWAN/Utilities/timeServer.c **** static void TimerInsertTimer( TimerEvent_t *obj)
 367:../../../../../../Middlewares/Third_Party/LoRaWAN/Utilities/timeServer.c **** {
 368:../../../../../../Middlewares/Third_Party/LoRaWAN/Utilities/timeServer.c ****   TimerEvent_t* cur = TimerListHead;
 369:../../../../../../Middlewares/Third_Party/LoRaWAN/Utilities/timeServer.c ****   TimerEvent_t* next = TimerListHead->Next;
 211              		.loc 1 369 0
 212 0050 4A69     		ldr	r2, [r1, #20]
 213              	.LVL13:
 370:../../../../../../Middlewares/Third_Party/LoRaWAN/Utilities/timeServer.c **** 
 371:../../../../../../Middlewares/Third_Party/LoRaWAN/Utilities/timeServer.c ****   while (cur->Next != NULL )
 214              		.loc 1 371 0
 215 0052 002A     		cmp	r2, #0
 216 0054 3CD0     		beq	.L37
 372:../../../../../../Middlewares/Third_Party/LoRaWAN/Utilities/timeServer.c ****   {  
 373:../../../../../../Middlewares/Third_Party/LoRaWAN/Utilities/timeServer.c ****     if( obj->Timestamp  > next->Timestamp )
 217              		.loc 1 373 0
 218 0056 1368     		ldr	r3, [r2]
 219 0058 9842     		cmp	r0, r3
 220 005a 04D8     		bhi	.L20
 221 005c 2EE0     		b	.L38
 222              	.LVL14:
 223              	.L19:
 224 005e 1968     		ldr	r1, [r3]
 225 0060 8842     		cmp	r0, r1
 226 0062 2DD9     		bls	.L18
 227 0064 1A00     		movs	r2, r3
 228              	.LVL15:
 229              	.L20:
 374:../../../../../../Middlewares/Third_Party/LoRaWAN/Utilities/timeServer.c ****     {
 375:../../../../../../Middlewares/Third_Party/LoRaWAN/Utilities/timeServer.c ****         cur = next;
 376:../../../../../../Middlewares/Third_Party/LoRaWAN/Utilities/timeServer.c ****         next = next->Next;
 230              		.loc 1 376 0
 231 0066 5369     		ldr	r3, [r2, #20]
 232              	.LVL16:
 371:../../../../../../Middlewares/Third_Party/LoRaWAN/Utilities/timeServer.c ****   {  
 233              		.loc 1 371 0
 234 0068 002B     		cmp	r3, #0
ARM GAS  C:\Users\EBANO_~1\AppData\Local\Temp\ccLhCSjo.s 			page 18


 235 006a F8D1     		bne	.L19
 236              	.LVL17:
 237              	.L17:
 377:../../../../../../Middlewares/Third_Party/LoRaWAN/Utilities/timeServer.c ****     }
 378:../../../../../../Middlewares/Third_Party/LoRaWAN/Utilities/timeServer.c ****     else
 379:../../../../../../Middlewares/Third_Party/LoRaWAN/Utilities/timeServer.c ****     {
 380:../../../../../../Middlewares/Third_Party/LoRaWAN/Utilities/timeServer.c ****         cur->Next = obj;
 381:../../../../../../Middlewares/Third_Party/LoRaWAN/Utilities/timeServer.c ****         obj->Next = next;
 382:../../../../../../Middlewares/Third_Party/LoRaWAN/Utilities/timeServer.c ****         return;
 383:../../../../../../Middlewares/Third_Party/LoRaWAN/Utilities/timeServer.c **** 
 384:../../../../../../Middlewares/Third_Party/LoRaWAN/Utilities/timeServer.c ****     }
 385:../../../../../../Middlewares/Third_Party/LoRaWAN/Utilities/timeServer.c ****   }
 386:../../../../../../Middlewares/Third_Party/LoRaWAN/Utilities/timeServer.c ****   cur->Next = obj;
 387:../../../../../../Middlewares/Third_Party/LoRaWAN/Utilities/timeServer.c ****   obj->Next = NULL;
 238              		.loc 1 387 0
 239 006c 0023     		movs	r3, #0
 386:../../../../../../Middlewares/Third_Party/LoRaWAN/Utilities/timeServer.c ****   obj->Next = NULL;
 240              		.loc 1 386 0
 241 006e 5561     		str	r5, [r2, #20]
 242              		.loc 1 387 0
 243 0070 6B61     		str	r3, [r5, #20]
 244 0072 D8E7     		b	.L13
 245              	.LVL18:
 246              	.L6:
 247              	.LBE79:
 248              	.LBE78:
 129:../../../../../../Middlewares/Third_Party/LoRaWAN/Utilities/timeServer.c ****   obj->IsStarted = true;
 249              		.loc 1 129 0
 250 0074 4368     		ldr	r3, [r0, #4]
 131:../../../../../../Middlewares/Third_Party/LoRaWAN/Utilities/timeServer.c **** 
 251              		.loc 1 131 0
 252 0076 4472     		strb	r4, [r0, #9]
 129:../../../../../../Middlewares/Third_Party/LoRaWAN/Utilities/timeServer.c ****   obj->IsStarted = true;
 253              		.loc 1 129 0
 254 0078 0360     		str	r3, [r0]
 130:../../../../../../Middlewares/Third_Party/LoRaWAN/Utilities/timeServer.c ****   obj->IsNext2Expire = false;
 255              		.loc 1 130 0
 256 007a 0123     		movs	r3, #1
 257 007c 0372     		strb	r3, [r0, #8]
 135:../../../../../../Middlewares/Third_Party/LoRaWAN/Utilities/timeServer.c ****     TimerInsertNewHeadTimer( obj ); // insert a timeout at now+obj->Timestamp
 258              		.loc 1 135 0
 259 007e FFF7FEFF 		bl	HW_RTC_SetTimerContext
 260              	.LVL19:
 261              	.LBB82:
 262              	.LBB83:
 388:../../../../../../Middlewares/Third_Party/LoRaWAN/Utilities/timeServer.c **** }
 389:../../../../../../Middlewares/Third_Party/LoRaWAN/Utilities/timeServer.c **** 
 390:../../../../../../Middlewares/Third_Party/LoRaWAN/Utilities/timeServer.c **** static void TimerInsertNewHeadTimer( TimerEvent_t *obj )
 391:../../../../../../Middlewares/Third_Party/LoRaWAN/Utilities/timeServer.c **** {
 392:../../../../../../Middlewares/Third_Party/LoRaWAN/Utilities/timeServer.c ****   TimerEvent_t* cur = TimerListHead;
 263              		.loc 1 392 0
 264 0082 3368     		ldr	r3, [r6]
 265              	.LVL20:
 393:../../../../../../Middlewares/Third_Party/LoRaWAN/Utilities/timeServer.c **** 
 394:../../../../../../Middlewares/Third_Party/LoRaWAN/Utilities/timeServer.c ****   if( cur != NULL )
 266              		.loc 1 394 0
 267 0084 002B     		cmp	r3, #0
ARM GAS  C:\Users\EBANO_~1\AppData\Local\Temp\ccLhCSjo.s 			page 19


 268 0086 00D0     		beq	.L22
 395:../../../../../../Middlewares/Third_Party/LoRaWAN/Utilities/timeServer.c ****   {
 396:../../../../../../Middlewares/Third_Party/LoRaWAN/Utilities/timeServer.c ****     cur->IsNext2Expire = false;
 269              		.loc 1 396 0
 270 0088 5C72     		strb	r4, [r3, #9]
 271              	.L22:
 397:../../../../../../Middlewares/Third_Party/LoRaWAN/Utilities/timeServer.c ****   }
 398:../../../../../../Middlewares/Third_Party/LoRaWAN/Utilities/timeServer.c **** 
 399:../../../../../../Middlewares/Third_Party/LoRaWAN/Utilities/timeServer.c ****   obj->Next = cur;
 272              		.loc 1 399 0
 273 008a 6B61     		str	r3, [r5, #20]
 400:../../../../../../Middlewares/Third_Party/LoRaWAN/Utilities/timeServer.c ****   TimerListHead = obj;
 274              		.loc 1 400 0
 275 008c 3560     		str	r5, [r6]
 276              	.LVL21:
 277              	.LBB84:
 278              	.LBB85:
 349:../../../../../../Middlewares/Third_Party/LoRaWAN/Utilities/timeServer.c ****   obj->IsNext2Expire = true; 
 279              		.loc 1 349 0
 280 008e FFF7FEFF 		bl	HW_RTC_GetMinimumTimeout
 281              	.LVL22:
 350:../../../../../../Middlewares/Third_Party/LoRaWAN/Utilities/timeServer.c **** 
 282              		.loc 1 350 0
 283 0092 0123     		movs	r3, #1
 349:../../../../../../Middlewares/Third_Party/LoRaWAN/Utilities/timeServer.c ****   obj->IsNext2Expire = true; 
 284              		.loc 1 349 0
 285 0094 0400     		movs	r4, r0
 286              	.LVL23:
 287              	.L33:
 288              	.LBE85:
 289              	.LBE84:
 290              	.LBE83:
 291              	.LBE82:
 292              	.LBB86:
 293              	.LBB87:
 294              	.LBB88:
 295              	.LBB89:
 350:../../../../../../Middlewares/Third_Party/LoRaWAN/Utilities/timeServer.c **** 
 296              		.loc 1 350 0
 297 0096 6B72     		strb	r3, [r5, #9]
 353:../../../../../../Middlewares/Third_Party/LoRaWAN/Utilities/timeServer.c ****   {
 298              		.loc 1 353 0
 299 0098 2E68     		ldr	r6, [r5]
 300 009a FFF7FEFF 		bl	HW_RTC_GetTimerElapsedTime
 301              	.LVL24:
 302 009e 2018     		adds	r0, r4, r0
 303 00a0 8642     		cmp	r6, r0
 304 00a2 10D3     		bcc	.L14
 305 00a4 2868     		ldr	r0, [r5]
 306              	.L15:
 357:../../../../../../Middlewares/Third_Party/LoRaWAN/Utilities/timeServer.c **** }
 307              		.loc 1 357 0
 308 00a6 FFF7FEFF 		bl	HW_RTC_SetAlarm
 309              	.LVL25:
 310 00aa BCE7     		b	.L13
 311              	.L36:
 312              	.LVL26:
ARM GAS  C:\Users\EBANO_~1\AppData\Local\Temp\ccLhCSjo.s 			page 20


 313              	.LBE89:
 314              	.LBE88:
 396:../../../../../../Middlewares/Third_Party/LoRaWAN/Utilities/timeServer.c ****   }
 315              		.loc 1 396 0
 316 00ac 4C72     		strb	r4, [r1, #9]
 399:../../../../../../Middlewares/Third_Party/LoRaWAN/Utilities/timeServer.c ****   TimerListHead = obj;
 317              		.loc 1 399 0
 318 00ae 6961     		str	r1, [r5, #20]
 319              		.loc 1 400 0
 320 00b0 3560     		str	r5, [r6]
 321              	.LVL27:
 322              	.LBB92:
 323              	.LBB90:
 349:../../../../../../Middlewares/Third_Party/LoRaWAN/Utilities/timeServer.c ****   obj->IsNext2Expire = true; 
 324              		.loc 1 349 0
 325 00b2 FFF7FEFF 		bl	HW_RTC_GetMinimumTimeout
 326              	.LVL28:
 350:../../../../../../Middlewares/Third_Party/LoRaWAN/Utilities/timeServer.c **** 
 327              		.loc 1 350 0
 328 00b6 4346     		mov	r3, r8
 349:../../../../../../Middlewares/Third_Party/LoRaWAN/Utilities/timeServer.c ****   obj->IsNext2Expire = true; 
 329              		.loc 1 349 0
 330 00b8 0400     		movs	r4, r0
 331              	.LVL29:
 332 00ba ECE7     		b	.L33
 333              	.LVL30:
 334              	.L38:
 335              	.LBE90:
 336              	.LBE92:
 337              	.LBE87:
 338              	.LBE86:
 339              	.LBB95:
 340              	.LBB80:
 373:../../../../../../Middlewares/Third_Party/LoRaWAN/Utilities/timeServer.c ****     {
 341              		.loc 1 373 0
 342 00bc 1300     		movs	r3, r2
 343 00be 0A00     		movs	r2, r1
 344              	.LVL31:
 345              	.L18:
 380:../../../../../../Middlewares/Third_Party/LoRaWAN/Utilities/timeServer.c ****         obj->Next = next;
 346              		.loc 1 380 0
 347 00c0 5561     		str	r5, [r2, #20]
 381:../../../../../../Middlewares/Third_Party/LoRaWAN/Utilities/timeServer.c ****         return;
 348              		.loc 1 381 0
 349 00c2 6B61     		str	r3, [r5, #20]
 350 00c4 AFE7     		b	.L13
 351              	.LVL32:
 352              	.L14:
 353              	.LBE80:
 354              	.LBE95:
 355              	.LBB96:
 356              	.LBB94:
 357              	.LBB93:
 358              	.LBB91:
 355:../../../../../../Middlewares/Third_Party/LoRaWAN/Utilities/timeServer.c ****   }
 359              		.loc 1 355 0
 360 00c6 FFF7FEFF 		bl	HW_RTC_GetTimerElapsedTime
ARM GAS  C:\Users\EBANO_~1\AppData\Local\Temp\ccLhCSjo.s 			page 21


 361              	.LVL33:
 362 00ca 2018     		adds	r0, r4, r0
 363 00cc 2860     		str	r0, [r5]
 364 00ce EAE7     		b	.L15
 365              	.LVL34:
 366              	.L37:
 367              	.LBE91:
 368              	.LBE93:
 369              	.LBE94:
 370              	.LBE96:
 371              	.LBB97:
 372              	.LBB81:
 371:../../../../../../Middlewares/Third_Party/LoRaWAN/Utilities/timeServer.c ****   {  
 373              		.loc 1 371 0
 374 00d0 0A00     		movs	r2, r1
 375              	.LVL35:
 376 00d2 CBE7     		b	.L17
 377              	.L40:
 378              		.align	2
 379              	.L39:
 380 00d4 00000000 		.word	.LANCHOR0
 381              	.LBE81:
 382              	.LBE97:
 383              		.cfi_endproc
 384              	.LFE41:
 385              		.size	TimerStart, .-TimerStart
 386              		.section	.text.TimerIsStarted,"ax",%progbits
 387              		.align	1
 388              		.p2align 2,,3
 389              		.global	TimerIsStarted
 390              		.syntax unified
 391              		.code	16
 392              		.thumb_func
 393              		.fpu softvfp
 394              		.type	TimerIsStarted, %function
 395              	TimerIsStarted:
 396              	.LFB42:
 158:../../../../../../Middlewares/Third_Party/LoRaWAN/Utilities/timeServer.c ****   return obj->IsStarted;
 397              		.loc 1 158 0
 398              		.cfi_startproc
 399              		@ args = 0, pretend = 0, frame = 0
 400              		@ frame_needed = 0, uses_anonymous_args = 0
 401              		@ link register save eliminated.
 402              	.LVL36:
 159:../../../../../../Middlewares/Third_Party/LoRaWAN/Utilities/timeServer.c **** }
 403              		.loc 1 159 0
 404 0000 007A     		ldrb	r0, [r0, #8]
 405              	.LVL37:
 160:../../../../../../Middlewares/Third_Party/LoRaWAN/Utilities/timeServer.c **** 
 406              		.loc 1 160 0
 407              		@ sp needed
 408 0002 7047     		bx	lr
 409              		.cfi_endproc
 410              	.LFE42:
 411              		.size	TimerIsStarted, .-TimerIsStarted
 412              		.section	.text.TimerIrqHandler,"ax",%progbits
 413              		.align	1
ARM GAS  C:\Users\EBANO_~1\AppData\Local\Temp\ccLhCSjo.s 			page 22


 414              		.p2align 2,,3
 415              		.global	TimerIrqHandler
 416              		.syntax unified
 417              		.code	16
 418              		.thumb_func
 419              		.fpu softvfp
 420              		.type	TimerIrqHandler, %function
 421              	TimerIrqHandler:
 422              	.LFB43:
 163:../../../../../../Middlewares/Third_Party/LoRaWAN/Utilities/timeServer.c ****   TimerEvent_t* cur;
 423              		.loc 1 163 0
 424              		.cfi_startproc
 425              		@ args = 0, pretend = 0, frame = 0
 426              		@ frame_needed = 0, uses_anonymous_args = 0
 427 0000 70B5     		push	{r4, r5, r6, lr}
 428              	.LCFI2:
 429              		.cfi_def_cfa_offset 16
 430              		.cfi_offset 4, -16
 431              		.cfi_offset 5, -12
 432              		.cfi_offset 6, -8
 433              		.cfi_offset 14, -4
 169:../../../../../../Middlewares/Third_Party/LoRaWAN/Utilities/timeServer.c ****   uint32_t now =  HW_RTC_SetTimerContext( );
 434              		.loc 1 169 0
 435 0002 FFF7FEFF 		bl	HW_RTC_GetTimerContext
 436              	.LVL38:
 437 0006 0600     		movs	r6, r0
 438              	.LVL39:
 170:../../../../../../Middlewares/Third_Party/LoRaWAN/Utilities/timeServer.c ****   uint32_t DeltaContext = now - old; //intentionnal wrap around
 439              		.loc 1 170 0
 440 0008 FFF7FEFF 		bl	HW_RTC_SetTimerContext
 441              	.LVL40:
 175:../../../../../../Middlewares/Third_Party/LoRaWAN/Utilities/timeServer.c ****   {
 442              		.loc 1 175 0
 443 000c 2B4C     		ldr	r4, .L75
 444 000e 2268     		ldr	r2, [r4]
 445 0010 002A     		cmp	r2, #0
 446 0012 31D0     		beq	.L42
 447              	.LVL41:
 177:../../../../../../Middlewares/Third_Party/LoRaWAN/Utilities/timeServer.c ****     {
 448              		.loc 1 177 0
 449 0014 5569     		ldr	r5, [r2, #20]
 450 0016 002D     		cmp	r5, #0
 451 0018 0AD0     		beq	.L44
 171:../../../../../../Middlewares/Third_Party/LoRaWAN/Utilities/timeServer.c ****   
 452              		.loc 1 171 0
 453 001a 801B     		subs	r0, r0, r6
 454              	.LVL42:
 455 001c 2B00     		movs	r3, r5
 456 001e 0026     		movs	r6, #0
 457              	.LVL43:
 458              	.L45:
 180:../../../../../../Middlewares/Third_Party/LoRaWAN/Utilities/timeServer.c ****       {
 459              		.loc 1 180 0
 460 0020 1968     		ldr	r1, [r3]
 461 0022 8142     		cmp	r1, r0
 462 0024 2AD9     		bls	.L46
 182:../../../../../../Middlewares/Third_Party/LoRaWAN/Utilities/timeServer.c ****       }
ARM GAS  C:\Users\EBANO_~1\AppData\Local\Temp\ccLhCSjo.s 			page 23


 463              		.loc 1 182 0
 464 0026 091A     		subs	r1, r1, r0
 465 0028 1960     		str	r1, [r3]
 466              	.LVL44:
 177:../../../../../../Middlewares/Third_Party/LoRaWAN/Utilities/timeServer.c ****     {
 467              		.loc 1 177 0
 468 002a 5B69     		ldr	r3, [r3, #20]
 469              	.LVL45:
 470 002c 002B     		cmp	r3, #0
 471 002e F7D1     		bne	.L45
 472              	.LVL46:
 473              	.L44:
 196:../../../../../../Middlewares/Third_Party/LoRaWAN/Utilities/timeServer.c ****     exec_cb( cur->Callback, cur->Context );
 474              		.loc 1 196 0
 475 0030 0023     		movs	r3, #0
 476 0032 1372     		strb	r3, [r2, #8]
 197:../../../../../../Middlewares/Third_Party/LoRaWAN/Utilities/timeServer.c ****   }
 477              		.loc 1 197 0
 478 0034 D368     		ldr	r3, [r2, #12]
 195:../../../../../../Middlewares/Third_Party/LoRaWAN/Utilities/timeServer.c ****     cur->IsStarted = false;
 479              		.loc 1 195 0
 480 0036 2560     		str	r5, [r4]
 197:../../../../../../Middlewares/Third_Party/LoRaWAN/Utilities/timeServer.c ****   }
 481              		.loc 1 197 0
 482 0038 002B     		cmp	r3, #0
 483 003a 29D0     		beq	.L72
 484              	.L71:
 197:../../../../../../Middlewares/Third_Party/LoRaWAN/Utilities/timeServer.c ****   }
 485              		.loc 1 197 0 is_stmt 0 discriminator 1
 486 003c 1069     		ldr	r0, [r2, #16]
 487 003e 9847     		blx	r3
 488              	.LVL47:
 202:../../../../../../Middlewares/Third_Party/LoRaWAN/Utilities/timeServer.c ****   {
 489              		.loc 1 202 0 is_stmt 1 discriminator 1
 490 0040 2368     		ldr	r3, [r4]
 206:../../../../../../Middlewares/Third_Party/LoRaWAN/Utilities/timeServer.c ****    exec_cb( cur->Callback, cur->Context );
 491              		.loc 1 206 0 discriminator 1
 492 0042 0026     		movs	r6, #0
 202:../../../../../../Middlewares/Third_Party/LoRaWAN/Utilities/timeServer.c ****   {
 493              		.loc 1 202 0 discriminator 1
 494 0044 002B     		cmp	r3, #0
 495 0046 0CD1     		bne	.L49
 496 0048 16E0     		b	.L42
 497              	.L53:
 204:../../../../../../Middlewares/Third_Party/LoRaWAN/Utilities/timeServer.c ****    TimerListHead = TimerListHead->Next;
 498              		.loc 1 204 0
 499 004a 2368     		ldr	r3, [r4]
 500              	.LVL48:
 205:../../../../../../Middlewares/Third_Party/LoRaWAN/Utilities/timeServer.c ****    cur->IsStarted = false;
 501              		.loc 1 205 0
 502 004c 5A69     		ldr	r2, [r3, #20]
 206:../../../../../../Middlewares/Third_Party/LoRaWAN/Utilities/timeServer.c ****    exec_cb( cur->Callback, cur->Context );
 503              		.loc 1 206 0
 504 004e 1E72     		strb	r6, [r3, #8]
 205:../../../../../../Middlewares/Third_Party/LoRaWAN/Utilities/timeServer.c ****    cur->IsStarted = false;
 505              		.loc 1 205 0
 506 0050 2260     		str	r2, [r4]
ARM GAS  C:\Users\EBANO_~1\AppData\Local\Temp\ccLhCSjo.s 			page 24


 207:../../../../../../Middlewares/Third_Party/LoRaWAN/Utilities/timeServer.c ****   }
 507              		.loc 1 207 0
 508 0052 DA68     		ldr	r2, [r3, #12]
 509 0054 002A     		cmp	r2, #0
 510 0056 10D0     		beq	.L52
 207:../../../../../../Middlewares/Third_Party/LoRaWAN/Utilities/timeServer.c ****   }
 511              		.loc 1 207 0 is_stmt 0 discriminator 1
 512 0058 1869     		ldr	r0, [r3, #16]
 513 005a 9047     		blx	r2
 514              	.LVL49:
 202:../../../../../../Middlewares/Third_Party/LoRaWAN/Utilities/timeServer.c ****   {
 515              		.loc 1 202 0 is_stmt 1 discriminator 1
 516 005c 2368     		ldr	r3, [r4]
 517 005e 002B     		cmp	r3, #0
 518 0060 0AD0     		beq	.L42
 519              	.L49:
 520 0062 1D68     		ldr	r5, [r3]
 521 0064 FFF7FEFF 		bl	HW_RTC_GetTimerElapsedTime
 522              	.LVL50:
 523 0068 8542     		cmp	r5, r0
 524 006a EED3     		bcc	.L53
 525 006c 2468     		ldr	r4, [r4]
 211:../../../../../../Middlewares/Third_Party/LoRaWAN/Utilities/timeServer.c ****   {
 526              		.loc 1 211 0
 527 006e 002C     		cmp	r4, #0
 528 0070 02D0     		beq	.L42
 211:../../../../../../Middlewares/Third_Party/LoRaWAN/Utilities/timeServer.c ****   {
 529              		.loc 1 211 0 is_stmt 0 discriminator 1
 530 0072 637A     		ldrb	r3, [r4, #9]
 531 0074 002B     		cmp	r3, #0
 532 0076 0CD0     		beq	.L73
 533              	.L42:
 215:../../../../../../Middlewares/Third_Party/LoRaWAN/Utilities/timeServer.c **** 
 534              		.loc 1 215 0 is_stmt 1
 535              		@ sp needed
 536 0078 70BD     		pop	{r4, r5, r6, pc}
 537              	.LVL51:
 538              	.L52:
 539 007a FEE7     		b	.L52
 540              	.LVL52:
 541              	.L46:
 542 007c 1E60     		str	r6, [r3]
 543              	.LVL53:
 177:../../../../../../Middlewares/Third_Party/LoRaWAN/Utilities/timeServer.c ****     {
 544              		.loc 1 177 0
 545 007e 5B69     		ldr	r3, [r3, #20]
 546              	.LVL54:
 547 0080 002B     		cmp	r3, #0
 548 0082 CDD1     		bne	.L45
 549              	.LVL55:
 196:../../../../../../Middlewares/Third_Party/LoRaWAN/Utilities/timeServer.c ****     exec_cb( cur->Callback, cur->Context );
 550              		.loc 1 196 0
 551 0084 0023     		movs	r3, #0
 552 0086 1372     		strb	r3, [r2, #8]
 197:../../../../../../Middlewares/Third_Party/LoRaWAN/Utilities/timeServer.c ****   }
 553              		.loc 1 197 0
 554 0088 D368     		ldr	r3, [r2, #12]
ARM GAS  C:\Users\EBANO_~1\AppData\Local\Temp\ccLhCSjo.s 			page 25


 195:../../../../../../Middlewares/Third_Party/LoRaWAN/Utilities/timeServer.c ****     cur->IsStarted = false;
 555              		.loc 1 195 0
 556 008a 2560     		str	r5, [r4]
 197:../../../../../../Middlewares/Third_Party/LoRaWAN/Utilities/timeServer.c ****   }
 557              		.loc 1 197 0
 558 008c 002B     		cmp	r3, #0
 559 008e D5D1     		bne	.L71
 560              	.LVL56:
 561              	.L72:
 562              	.L48:
 563 0090 FEE7     		b	.L48
 564              	.LVL57:
 565              	.L73:
 566              	.LBB100:
 567              	.LBB101:
 349:../../../../../../Middlewares/Third_Party/LoRaWAN/Utilities/timeServer.c ****   obj->IsNext2Expire = true; 
 568              		.loc 1 349 0
 569 0092 FFF7FEFF 		bl	HW_RTC_GetMinimumTimeout
 570              	.LVL58:
 350:../../../../../../Middlewares/Third_Party/LoRaWAN/Utilities/timeServer.c **** 
 571              		.loc 1 350 0
 572 0096 0123     		movs	r3, #1
 573 0098 6372     		strb	r3, [r4, #9]
 349:../../../../../../Middlewares/Third_Party/LoRaWAN/Utilities/timeServer.c ****   obj->IsNext2Expire = true; 
 574              		.loc 1 349 0
 575 009a 0500     		movs	r5, r0
 576              	.LVL59:
 353:../../../../../../Middlewares/Third_Party/LoRaWAN/Utilities/timeServer.c ****   {
 577              		.loc 1 353 0
 578 009c 2668     		ldr	r6, [r4]
 579 009e FFF7FEFF 		bl	HW_RTC_GetTimerElapsedTime
 580              	.LVL60:
 581 00a2 2818     		adds	r0, r5, r0
 582 00a4 8642     		cmp	r6, r0
 583 00a6 03D3     		bcc	.L74
 584              	.LVL61:
 585              	.L54:
 357:../../../../../../Middlewares/Third_Party/LoRaWAN/Utilities/timeServer.c **** }
 586              		.loc 1 357 0
 587 00a8 2068     		ldr	r0, [r4]
 588 00aa FFF7FEFF 		bl	HW_RTC_SetAlarm
 589              	.LVL62:
 590              	.LBE101:
 591              	.LBE100:
 215:../../../../../../Middlewares/Third_Party/LoRaWAN/Utilities/timeServer.c **** 
 592              		.loc 1 215 0
 593 00ae E3E7     		b	.L42
 594              	.LVL63:
 595              	.L74:
 596              	.LBB103:
 597              	.LBB102:
 355:../../../../../../Middlewares/Third_Party/LoRaWAN/Utilities/timeServer.c ****   }
 598              		.loc 1 355 0
 599 00b0 FFF7FEFF 		bl	HW_RTC_GetTimerElapsedTime
 600              	.LVL64:
 601 00b4 2D18     		adds	r5, r5, r0
 602              	.LVL65:
ARM GAS  C:\Users\EBANO_~1\AppData\Local\Temp\ccLhCSjo.s 			page 26


 603 00b6 2560     		str	r5, [r4]
 604 00b8 F6E7     		b	.L54
 605              	.L76:
 606 00ba C046     		.align	2
 607              	.L75:
 608 00bc 00000000 		.word	.LANCHOR0
 609              	.LBE102:
 610              	.LBE103:
 611              		.cfi_endproc
 612              	.LFE43:
 613              		.size	TimerIrqHandler, .-TimerIrqHandler
 614              		.section	.text.TimerStop,"ax",%progbits
 615              		.align	1
 616              		.p2align 2,,3
 617              		.global	TimerStop
 618              		.syntax unified
 619              		.code	16
 620              		.thumb_func
 621              		.fpu softvfp
 622              		.type	TimerStop, %function
 623              	TimerStop:
 624              	.LFB44:
 218:../../../../../../Middlewares/Third_Party/LoRaWAN/Utilities/timeServer.c ****   BACKUP_PRIMASK();
 625              		.loc 1 218 0
 626              		.cfi_startproc
 627              		@ args = 0, pretend = 0, frame = 0
 628              		@ frame_needed = 0, uses_anonymous_args = 0
 629              	.LVL66:
 630 0000 F8B5     		push	{r3, r4, r5, r6, r7, lr}
 631              	.LCFI3:
 632              		.cfi_def_cfa_offset 24
 633              		.cfi_offset 3, -24
 634              		.cfi_offset 4, -20
 635              		.cfi_offset 5, -16
 636              		.cfi_offset 6, -12
 637              		.cfi_offset 7, -8
 638              		.cfi_offset 14, -4
 639              	.LBB122:
 640              	.LBB123:
 313:../../../../../../Drivers/CMSIS/Include/cmsis_gcc.h ****   return(result);
 641              		.loc 2 313 0
 642              		.syntax divided
 643              	@ 313 "../../../../../../Drivers/CMSIS/Include/cmsis_gcc.h" 1
 644 0002 EFF31085 		MRS r5, primask
 645              	@ 0 "" 2
 646              		.thumb
 647              		.syntax unified
 648              	.LBE123:
 649              	.LBE122:
 650              	.LBB124:
 651              	.LBB125:
  96:../../../../../../Drivers/CMSIS/Include/cmsis_gcc.h **** }
 652              		.loc 2 96 0
 653              		.syntax divided
 654              	@ 96 "../../../../../../Drivers/CMSIS/Include/cmsis_gcc.h" 1
 655 0006 72B6     		cpsid i
 656              	@ 0 "" 2
ARM GAS  C:\Users\EBANO_~1\AppData\Local\Temp\ccLhCSjo.s 			page 27


 657              		.thumb
 658              		.syntax unified
 659              	.LBE125:
 660              	.LBE124:
 223:../../../../../../Middlewares/Third_Party/LoRaWAN/Utilities/timeServer.c ****   TimerEvent_t* cur = TimerListHead;
 661              		.loc 1 223 0
 662 0008 1E4C     		ldr	r4, .L103
 663 000a 2168     		ldr	r1, [r4]
 664              	.LVL67:
 227:../../../../../../Middlewares/Third_Party/LoRaWAN/Utilities/timeServer.c ****   {
 665              		.loc 1 227 0
 666 000c 0029     		cmp	r1, #0
 667 000e 10D0     		beq	.L86
 227:../../../../../../Middlewares/Third_Party/LoRaWAN/Utilities/timeServer.c ****   {
 668              		.loc 1 227 0 is_stmt 0 discriminator 1
 669 0010 0028     		cmp	r0, #0
 670 0012 0ED0     		beq	.L86
 233:../../../../../../Middlewares/Third_Party/LoRaWAN/Utilities/timeServer.c **** 
 671              		.loc 1 233 0 is_stmt 1
 672 0014 0023     		movs	r3, #0
 673 0016 0372     		strb	r3, [r0, #8]
 235:../../../../../../Middlewares/Third_Party/LoRaWAN/Utilities/timeServer.c ****   {
 674              		.loc 1 235 0
 675 0018 8142     		cmp	r1, r0
 676 001a 0DD0     		beq	.L100
 285:../../../../../../Middlewares/Third_Party/LoRaWAN/Utilities/timeServer.c ****       }
 677              		.loc 1 285 0
 678 001c 4B69     		ldr	r3, [r1, #20]
 679              	.LVL68:
 266:../../../../../../Middlewares/Third_Party/LoRaWAN/Utilities/timeServer.c ****     {
 680              		.loc 1 266 0
 681 001e 002B     		cmp	r3, #0
 682 0020 01D1     		bne	.L88
 683 0022 06E0     		b	.L86
 684              	.LVL69:
 685              	.L102:
 686 0024 1300     		movs	r3, r2
 687              	.LVL70:
 688              	.L88:
 268:../../../../../../Middlewares/Third_Party/LoRaWAN/Utilities/timeServer.c ****       {
 689              		.loc 1 268 0
 690 0026 8342     		cmp	r3, r0
 691 0028 1DD0     		beq	.L101
 692              	.LVL71:
 285:../../../../../../Middlewares/Third_Party/LoRaWAN/Utilities/timeServer.c ****       }
 693              		.loc 1 285 0
 694 002a 5A69     		ldr	r2, [r3, #20]
 695              	.LVL72:
 696 002c 1900     		movs	r1, r3
 266:../../../../../../Middlewares/Third_Party/LoRaWAN/Utilities/timeServer.c ****     {
 697              		.loc 1 266 0
 698 002e 002A     		cmp	r2, #0
 699 0030 F8D1     		bne	.L102
 700              	.LVL73:
 701              	.L86:
 702              	.LBB126:
 703              	.LBB127:
ARM GAS  C:\Users\EBANO_~1\AppData\Local\Temp\ccLhCSjo.s 			page 28


 704              		.loc 2 341 0
 705              		.syntax divided
 706              	@ 341 "../../../../../../Drivers/CMSIS/Include/cmsis_gcc.h" 1
 707 0032 85F31088 		MSR primask, r5
 708              	@ 0 "" 2
 709              		.thumb
 710              		.syntax unified
 711              	.LBE127:
 712              	.LBE126:
 291:../../../../../../Middlewares/Third_Party/LoRaWAN/Utilities/timeServer.c ****   
 713              		.loc 1 291 0
 714              		@ sp needed
 715              	.LVL74:
 716 0036 F8BD     		pop	{r3, r4, r5, r6, r7, pc}
 717              	.LVL75:
 718              	.L100:
 237:../../../../../../Middlewares/Third_Party/LoRaWAN/Utilities/timeServer.c ****     {  
 719              		.loc 1 237 0
 720 0038 4A7A     		ldrb	r2, [r1, #9]
 721 003a 4E69     		ldr	r6, [r1, #20]
 722 003c 002A     		cmp	r2, #0
 723 003e 15D0     		beq	.L82
 240:../../../../../../Middlewares/Third_Party/LoRaWAN/Utilities/timeServer.c ****       if( TimerListHead->Next != NULL )
 724              		.loc 1 240 0
 725 0040 4B72     		strb	r3, [r1, #9]
 241:../../../../../../Middlewares/Third_Party/LoRaWAN/Utilities/timeServer.c ****       {
 726              		.loc 1 241 0
 727 0042 002E     		cmp	r6, #0
 728 0044 19D0     		beq	.L83
 243:../../../../../../Middlewares/Third_Party/LoRaWAN/Utilities/timeServer.c ****         TimerSetTimeout( TimerListHead );
 729              		.loc 1 243 0
 730 0046 2660     		str	r6, [r4]
 731              	.LVL76:
 732              	.LBB128:
 733              	.LBB129:
 349:../../../../../../Middlewares/Third_Party/LoRaWAN/Utilities/timeServer.c ****   obj->IsNext2Expire = true; 
 734              		.loc 1 349 0
 735 0048 FFF7FEFF 		bl	HW_RTC_GetMinimumTimeout
 736              	.LVL77:
 350:../../../../../../Middlewares/Third_Party/LoRaWAN/Utilities/timeServer.c **** 
 737              		.loc 1 350 0
 738 004c 0123     		movs	r3, #1
 739 004e 7372     		strb	r3, [r6, #9]
 349:../../../../../../Middlewares/Third_Party/LoRaWAN/Utilities/timeServer.c ****   obj->IsNext2Expire = true; 
 740              		.loc 1 349 0
 741 0050 0400     		movs	r4, r0
 742              	.LVL78:
 353:../../../../../../Middlewares/Third_Party/LoRaWAN/Utilities/timeServer.c ****   {
 743              		.loc 1 353 0
 744 0052 3768     		ldr	r7, [r6]
 745 0054 FFF7FEFF 		bl	HW_RTC_GetTimerElapsedTime
 746              	.LVL79:
 747 0058 2018     		adds	r0, r4, r0
 748 005a 8742     		cmp	r7, r0
 749 005c 08D3     		bcc	.L84
 750 005e 3068     		ldr	r0, [r6]
 751              	.L85:
ARM GAS  C:\Users\EBANO_~1\AppData\Local\Temp\ccLhCSjo.s 			page 29


 357:../../../../../../Middlewares/Third_Party/LoRaWAN/Utilities/timeServer.c **** }
 752              		.loc 1 357 0
 753 0060 FFF7FEFF 		bl	HW_RTC_SetAlarm
 754              	.LVL80:
 755 0064 E5E7     		b	.L86
 756              	.LVL81:
 757              	.L101:
 758              	.LBE129:
 759              	.LBE128:
 270:../../../../../../Middlewares/Third_Party/LoRaWAN/Utilities/timeServer.c ****         {
 760              		.loc 1 270 0
 761 0066 5B69     		ldr	r3, [r3, #20]
 762              	.LVL82:
 763 0068 4B61     		str	r3, [r1, #20]
 764 006a E2E7     		b	.L86
 765              	.LVL83:
 766              	.L82:
 260:../../../../../../Middlewares/Third_Party/LoRaWAN/Utilities/timeServer.c ****       }
 767              		.loc 1 260 0
 768 006c 2660     		str	r6, [r4]
 769 006e E0E7     		b	.L86
 770              	.LVL84:
 771              	.L84:
 772              	.LBB131:
 773              	.LBB130:
 355:../../../../../../Middlewares/Third_Party/LoRaWAN/Utilities/timeServer.c ****   }
 774              		.loc 1 355 0
 775 0070 FFF7FEFF 		bl	HW_RTC_GetTimerElapsedTime
 776              	.LVL85:
 777 0074 2018     		adds	r0, r4, r0
 778 0076 3060     		str	r0, [r6]
 779 0078 F2E7     		b	.L85
 780              	.LVL86:
 781              	.L83:
 782              	.LBE130:
 783              	.LBE131:
 248:../../../../../../Middlewares/Third_Party/LoRaWAN/Utilities/timeServer.c ****         TimerListHead = NULL;
 784              		.loc 1 248 0
 785 007a FFF7FEFF 		bl	HW_RTC_StopAlarm
 786              	.LVL87:
 249:../../../../../../Middlewares/Third_Party/LoRaWAN/Utilities/timeServer.c ****       }
 787              		.loc 1 249 0
 788 007e 2660     		str	r6, [r4]
 789 0080 D7E7     		b	.L86
 790              	.L104:
 791 0082 C046     		.align	2
 792              	.L103:
 793 0084 00000000 		.word	.LANCHOR0
 794              		.cfi_endproc
 795              	.LFE44:
 796              		.size	TimerStop, .-TimerStop
 797              		.section	.text.TimerReset,"ax",%progbits
 798              		.align	1
 799              		.p2align 2,,3
 800              		.global	TimerReset
 801              		.syntax unified
 802              		.code	16
ARM GAS  C:\Users\EBANO_~1\AppData\Local\Temp\ccLhCSjo.s 			page 30


 803              		.thumb_func
 804              		.fpu softvfp
 805              		.type	TimerReset, %function
 806              	TimerReset:
 807              	.LFB45:
 296:../../../../../../Middlewares/Third_Party/LoRaWAN/Utilities/timeServer.c ****   TimerStop( obj );
 808              		.loc 1 296 0
 809              		.cfi_startproc
 810              		@ args = 0, pretend = 0, frame = 0
 811              		@ frame_needed = 0, uses_anonymous_args = 0
 812              	.LVL88:
 813 0000 F8B5     		push	{r3, r4, r5, r6, r7, lr}
 814              	.LCFI4:
 815              		.cfi_def_cfa_offset 24
 816              		.cfi_offset 3, -24
 817              		.cfi_offset 4, -20
 818              		.cfi_offset 5, -16
 819              		.cfi_offset 6, -12
 820              		.cfi_offset 7, -8
 821              		.cfi_offset 14, -4
 822 0002 CE46     		mov	lr, r9
 823 0004 4746     		mov	r7, r8
 824 0006 0500     		movs	r5, r0
 825 0008 80B5     		push	{r7, lr}
 826              	.LCFI5:
 827              		.cfi_def_cfa_offset 32
 828              		.cfi_offset 8, -32
 829              		.cfi_offset 9, -28
 830              	.LBB166:
 831              	.LBB167:
 832              	.LBB168:
 833              	.LBB169:
 313:../../../../../../Drivers/CMSIS/Include/cmsis_gcc.h ****   return(result);
 834              		.loc 2 313 0
 835              		.syntax divided
 836              	@ 313 "../../../../../../Drivers/CMSIS/Include/cmsis_gcc.h" 1
 837 000a EFF31084 		MRS r4, primask
 838              	@ 0 "" 2
 839              		.thumb
 840              		.syntax unified
 841              	.LBE169:
 842              	.LBE168:
 843              	.LBB170:
 844              	.LBB171:
  96:../../../../../../Drivers/CMSIS/Include/cmsis_gcc.h **** }
 845              		.loc 2 96 0
 846              		.syntax divided
 847              	@ 96 "../../../../../../Drivers/CMSIS/Include/cmsis_gcc.h" 1
 848 000e 72B6     		cpsid i
 849              	@ 0 "" 2
 850              		.thumb
 851              		.syntax unified
 852              	.LBE171:
 853              	.LBE170:
 223:../../../../../../Middlewares/Third_Party/LoRaWAN/Utilities/timeServer.c ****   TimerEvent_t* cur = TimerListHead;
 854              		.loc 1 223 0
 855 0010 504E     		ldr	r6, .L165
ARM GAS  C:\Users\EBANO_~1\AppData\Local\Temp\ccLhCSjo.s 			page 31


 856 0012 3168     		ldr	r1, [r6]
 857              	.LVL89:
 227:../../../../../../Middlewares/Third_Party/LoRaWAN/Utilities/timeServer.c ****   {
 858              		.loc 1 227 0
 859 0014 0029     		cmp	r1, #0
 860 0016 10D0     		beq	.L114
 861 0018 0028     		cmp	r0, #0
 862 001a 0ED0     		beq	.L114
 233:../../../../../../Middlewares/Third_Party/LoRaWAN/Utilities/timeServer.c **** 
 863              		.loc 1 233 0
 864 001c 0023     		movs	r3, #0
 865 001e 0372     		strb	r3, [r0, #8]
 235:../../../../../../Middlewares/Third_Party/LoRaWAN/Utilities/timeServer.c ****   {
 866              		.loc 1 235 0
 867 0020 8842     		cmp	r0, r1
 868 0022 42D0     		beq	.L157
 285:../../../../../../Middlewares/Third_Party/LoRaWAN/Utilities/timeServer.c ****       }
 869              		.loc 1 285 0
 870 0024 4B69     		ldr	r3, [r1, #20]
 871              	.LVL90:
 266:../../../../../../Middlewares/Third_Party/LoRaWAN/Utilities/timeServer.c ****     {
 872              		.loc 1 266 0
 873 0026 002B     		cmp	r3, #0
 874 0028 01D1     		bne	.L116
 875 002a 06E0     		b	.L114
 876              	.LVL91:
 877              	.L159:
 878 002c 1300     		movs	r3, r2
 879              	.LVL92:
 880              	.L116:
 881 002e 5A69     		ldr	r2, [r3, #20]
 268:../../../../../../Middlewares/Third_Party/LoRaWAN/Utilities/timeServer.c ****       {
 882              		.loc 1 268 0
 883 0030 9D42     		cmp	r5, r3
 884 0032 52D0     		beq	.L158
 885              	.LVL93:
 886 0034 1900     		movs	r1, r3
 266:../../../../../../Middlewares/Third_Party/LoRaWAN/Utilities/timeServer.c ****     {
 887              		.loc 1 266 0
 888 0036 002A     		cmp	r2, #0
 889 0038 F8D1     		bne	.L159
 890              	.LVL94:
 891              	.L114:
 892              	.LBB172:
 893              	.LBB173:
 894              		.loc 2 341 0
 895              		.syntax divided
 896              	@ 341 "../../../../../../Drivers/CMSIS/Include/cmsis_gcc.h" 1
 897 003a 84F31088 		MSR primask, r4
 898              	@ 0 "" 2
 899              	.LVL95:
 900              		.thumb
 901              		.syntax unified
 902              	.LBE173:
 903              	.LBE172:
 904              	.LBE167:
 905              	.LBE166:
ARM GAS  C:\Users\EBANO_~1\AppData\Local\Temp\ccLhCSjo.s 			page 32


 906              	.LBB182:
 907              	.LBB183:
 908              	.LBB184:
 909              	.LBB185:
 313:../../../../../../Drivers/CMSIS/Include/cmsis_gcc.h ****   return(result);
 910              		.loc 2 313 0
 911              		.syntax divided
 912              	@ 313 "../../../../../../Drivers/CMSIS/Include/cmsis_gcc.h" 1
 913 003e EFF31087 		MRS r7, primask
 914              	@ 0 "" 2
 915              		.thumb
 916              		.syntax unified
 917              	.LBE185:
 918              	.LBE184:
 919              	.LBB186:
 920              	.LBB187:
  96:../../../../../../Drivers/CMSIS/Include/cmsis_gcc.h **** }
 921              		.loc 2 96 0
 922              		.syntax divided
 923              	@ 96 "../../../../../../Drivers/CMSIS/Include/cmsis_gcc.h" 1
 924 0042 72B6     		cpsid i
 925              	@ 0 "" 2
 926              		.thumb
 927              		.syntax unified
 928              	.LBE187:
 929              	.LBE186:
 124:../../../../../../Middlewares/Third_Party/LoRaWAN/Utilities/timeServer.c ****   {
 930              		.loc 1 124 0
 931 0044 002D     		cmp	r5, #0
 932 0046 08D0     		beq	.L128
 933              	.LVL96:
 934              	.LBB188:
 935              	.LBB189:
 335:../../../../../../Middlewares/Third_Party/LoRaWAN/Utilities/timeServer.c **** 
 936              		.loc 1 335 0
 937 0048 3468     		ldr	r4, [r6]
 938              	.LVL97:
 337:../../../../../../Middlewares/Third_Party/LoRaWAN/Utilities/timeServer.c ****   {
 939              		.loc 1 337 0
 940 004a 002C     		cmp	r4, #0
 941 004c 03D1     		bne	.L123
 942 004e 46E0     		b	.L121
 943              	.L161:
 343:../../../../../../Middlewares/Third_Party/LoRaWAN/Utilities/timeServer.c ****   }
 944              		.loc 1 343 0
 945 0050 6469     		ldr	r4, [r4, #20]
 946              	.LVL98:
 337:../../../../../../Middlewares/Third_Party/LoRaWAN/Utilities/timeServer.c ****   {
 947              		.loc 1 337 0
 948 0052 002C     		cmp	r4, #0
 949 0054 07D0     		beq	.L160
 950              	.L123:
 339:../../../../../../Middlewares/Third_Party/LoRaWAN/Utilities/timeServer.c ****     {
 951              		.loc 1 339 0
 952 0056 A542     		cmp	r5, r4
 953 0058 FAD1     		bne	.L161
 954              	.LVL99:
ARM GAS  C:\Users\EBANO_~1\AppData\Local\Temp\ccLhCSjo.s 			page 33


 955              	.L128:
 956              	.LBE189:
 957              	.LBE188:
 958              	.LBB190:
 959              	.LBB191:
 960              		.loc 2 341 0
 961              		.syntax divided
 962              	@ 341 "../../../../../../Drivers/CMSIS/Include/cmsis_gcc.h" 1
 963 005a 87F31088 		MSR primask, r7
 964              	@ 0 "" 2
 965              	.LVL100:
 966              		.thumb
 967              		.syntax unified
 968              	.LBE191:
 969              	.LBE190:
 970              	.LBE183:
 971              	.LBE182:
 299:../../../../../../Middlewares/Third_Party/LoRaWAN/Utilities/timeServer.c **** 
 972              		.loc 1 299 0
 973              		@ sp needed
 974              	.LVL101:
 975              	.LVL102:
 976 005e 0CBC     		pop	{r2, r3}
 977 0060 9046     		mov	r8, r2
 978 0062 9946     		mov	r9, r3
 979 0064 F8BD     		pop	{r3, r4, r5, r6, r7, pc}
 980              	.LVL103:
 981              	.L160:
 982              	.LBB216:
 983              	.LBB212:
 129:../../../../../../Middlewares/Third_Party/LoRaWAN/Utilities/timeServer.c ****   obj->IsStarted = true;
 984              		.loc 1 129 0
 985 0066 6B68     		ldr	r3, [r5, #4]
 131:../../../../../../Middlewares/Third_Party/LoRaWAN/Utilities/timeServer.c **** 
 986              		.loc 1 131 0
 987 0068 6C72     		strb	r4, [r5, #9]
 129:../../../../../../Middlewares/Third_Party/LoRaWAN/Utilities/timeServer.c ****   obj->IsStarted = true;
 988              		.loc 1 129 0
 989 006a 2B60     		str	r3, [r5]
 130:../../../../../../Middlewares/Third_Party/LoRaWAN/Utilities/timeServer.c ****   obj->IsNext2Expire = false;
 990              		.loc 1 130 0
 991 006c 0123     		movs	r3, #1
 992 006e 2B72     		strb	r3, [r5, #8]
 993 0070 9846     		mov	r8, r3
 140:../../../../../../Middlewares/Third_Party/LoRaWAN/Utilities/timeServer.c ****     obj->Timestamp += elapsedTime;
 994              		.loc 1 140 0
 995 0072 FFF7FEFF 		bl	HW_RTC_GetTimerElapsedTime
 996              	.LVL104:
 141:../../../../../../Middlewares/Third_Party/LoRaWAN/Utilities/timeServer.c ****   
 997              		.loc 1 141 0
 998 0076 2B68     		ldr	r3, [r5]
 143:../../../../../../Middlewares/Third_Party/LoRaWAN/Utilities/timeServer.c ****     {
 999              		.loc 1 143 0
 1000 0078 3168     		ldr	r1, [r6]
 141:../../../../../../Middlewares/Third_Party/LoRaWAN/Utilities/timeServer.c ****   
 1001              		.loc 1 141 0
 1002 007a 9C46     		mov	ip, r3
ARM GAS  C:\Users\EBANO_~1\AppData\Local\Temp\ccLhCSjo.s 			page 34


 1003 007c 6044     		add	r0, r0, ip
 1004              	.LVL105:
 1005 007e 2860     		str	r0, [r5]
 143:../../../../../../Middlewares/Third_Party/LoRaWAN/Utilities/timeServer.c ****     {
 1006              		.loc 1 143 0
 1007 0080 0B68     		ldr	r3, [r1]
 1008 0082 9842     		cmp	r0, r3
 1009 0084 47D3     		bcc	.L162
 1010              	.LVL106:
 1011              	.LBB192:
 1012              	.LBB193:
 369:../../../../../../Middlewares/Third_Party/LoRaWAN/Utilities/timeServer.c **** 
 1013              		.loc 1 369 0
 1014 0086 4A69     		ldr	r2, [r1, #20]
 1015              	.LVL107:
 371:../../../../../../Middlewares/Third_Party/LoRaWAN/Utilities/timeServer.c ****   {  
 1016              		.loc 1 371 0
 1017 0088 002A     		cmp	r2, #0
 1018 008a 5DD0     		beq	.L163
 373:../../../../../../Middlewares/Third_Party/LoRaWAN/Utilities/timeServer.c ****     {
 1019              		.loc 1 373 0
 1020 008c 1368     		ldr	r3, [r2]
 1021 008e 8342     		cmp	r3, r0
 1022 0090 04D3     		bcc	.L135
 1023 0092 48E0     		b	.L164
 1024              	.LVL108:
 1025              	.L134:
 1026 0094 1968     		ldr	r1, [r3]
 1027 0096 8842     		cmp	r0, r1
 1028 0098 47D9     		bls	.L133
 1029 009a 1A00     		movs	r2, r3
 1030              	.LVL109:
 1031              	.L135:
 376:../../../../../../Middlewares/Third_Party/LoRaWAN/Utilities/timeServer.c ****     }
 1032              		.loc 1 376 0
 1033 009c 5369     		ldr	r3, [r2, #20]
 1034              	.LVL110:
 371:../../../../../../Middlewares/Third_Party/LoRaWAN/Utilities/timeServer.c ****   {  
 1035              		.loc 1 371 0
 1036 009e 002B     		cmp	r3, #0
 1037 00a0 F8D1     		bne	.L134
 1038              	.LVL111:
 1039              	.L132:
 387:../../../../../../Middlewares/Third_Party/LoRaWAN/Utilities/timeServer.c **** }
 1040              		.loc 1 387 0
 1041 00a2 0023     		movs	r3, #0
 386:../../../../../../Middlewares/Third_Party/LoRaWAN/Utilities/timeServer.c ****   obj->Next = NULL;
 1042              		.loc 1 386 0
 1043 00a4 5561     		str	r5, [r2, #20]
 387:../../../../../../Middlewares/Third_Party/LoRaWAN/Utilities/timeServer.c **** }
 1044              		.loc 1 387 0
 1045 00a6 6B61     		str	r3, [r5, #20]
 1046 00a8 D7E7     		b	.L128
 1047              	.LVL112:
 1048              	.L157:
 1049              	.LBE193:
 1050              	.LBE192:
ARM GAS  C:\Users\EBANO_~1\AppData\Local\Temp\ccLhCSjo.s 			page 35


 1051              	.LBE212:
 1052              	.LBE216:
 1053              	.LBB217:
 1054              	.LBB178:
 237:../../../../../../Middlewares/Third_Party/LoRaWAN/Utilities/timeServer.c ****     {  
 1055              		.loc 1 237 0
 1056 00aa 427A     		ldrb	r2, [r0, #9]
 1057 00ac 4769     		ldr	r7, [r0, #20]
 1058 00ae 002A     		cmp	r2, #0
 1059 00b0 3ED0     		beq	.L110
 240:../../../../../../Middlewares/Third_Party/LoRaWAN/Utilities/timeServer.c ****       if( TimerListHead->Next != NULL )
 1060              		.loc 1 240 0
 1061 00b2 4372     		strb	r3, [r0, #9]
 241:../../../../../../Middlewares/Third_Party/LoRaWAN/Utilities/timeServer.c ****       {
 1062              		.loc 1 241 0
 1063 00b4 002F     		cmp	r7, #0
 1064 00b6 49D0     		beq	.L111
 243:../../../../../../Middlewares/Third_Party/LoRaWAN/Utilities/timeServer.c ****         TimerSetTimeout( TimerListHead );
 1065              		.loc 1 243 0
 1066 00b8 3760     		str	r7, [r6]
 1067              	.LVL113:
 1068              	.LBB174:
 1069              	.LBB175:
 349:../../../../../../Middlewares/Third_Party/LoRaWAN/Utilities/timeServer.c ****   obj->IsNext2Expire = true; 
 1070              		.loc 1 349 0
 1071 00ba FFF7FEFF 		bl	HW_RTC_GetMinimumTimeout
 1072              	.LVL114:
 350:../../../../../../Middlewares/Third_Party/LoRaWAN/Utilities/timeServer.c **** 
 1073              		.loc 1 350 0
 1074 00be 0123     		movs	r3, #1
 1075 00c0 7B72     		strb	r3, [r7, #9]
 353:../../../../../../Middlewares/Third_Party/LoRaWAN/Utilities/timeServer.c ****   {
 1076              		.loc 1 353 0
 1077 00c2 3B68     		ldr	r3, [r7]
 349:../../../../../../Middlewares/Third_Party/LoRaWAN/Utilities/timeServer.c ****   obj->IsNext2Expire = true; 
 1078              		.loc 1 349 0
 1079 00c4 8046     		mov	r8, r0
 1080              	.LVL115:
 353:../../../../../../Middlewares/Third_Party/LoRaWAN/Utilities/timeServer.c ****   {
 1081              		.loc 1 353 0
 1082 00c6 9946     		mov	r9, r3
 1083 00c8 FFF7FEFF 		bl	HW_RTC_GetTimerElapsedTime
 1084              	.LVL116:
 1085 00cc 4044     		add	r0, r0, r8
 1086 00ce 8145     		cmp	r9, r0
 1087 00d0 35D3     		bcc	.L112
 1088 00d2 3868     		ldr	r0, [r7]
 1089              	.L113:
 357:../../../../../../Middlewares/Third_Party/LoRaWAN/Utilities/timeServer.c **** }
 1090              		.loc 1 357 0
 1091 00d4 FFF7FEFF 		bl	HW_RTC_SetAlarm
 1092              	.LVL117:
 1093 00d8 AFE7     		b	.L114
 1094              	.LVL118:
 1095              	.L158:
 1096              	.LBE175:
 1097              	.LBE174:
ARM GAS  C:\Users\EBANO_~1\AppData\Local\Temp\ccLhCSjo.s 			page 36


 278:../../../../../../Middlewares/Third_Party/LoRaWAN/Utilities/timeServer.c ****         }
 1098              		.loc 1 278 0
 1099 00da 4A61     		str	r2, [r1, #20]
 1100 00dc ADE7     		b	.L114
 1101              	.LVL119:
 1102              	.L121:
 1103              	.LBE178:
 1104              	.LBE217:
 1105              	.LBB218:
 1106              	.LBB213:
 129:../../../../../../Middlewares/Third_Party/LoRaWAN/Utilities/timeServer.c ****   obj->IsStarted = true;
 1107              		.loc 1 129 0
 1108 00de 6B68     		ldr	r3, [r5, #4]
 131:../../../../../../Middlewares/Third_Party/LoRaWAN/Utilities/timeServer.c **** 
 1109              		.loc 1 131 0
 1110 00e0 6C72     		strb	r4, [r5, #9]
 129:../../../../../../Middlewares/Third_Party/LoRaWAN/Utilities/timeServer.c ****   obj->IsStarted = true;
 1111              		.loc 1 129 0
 1112 00e2 2B60     		str	r3, [r5]
 130:../../../../../../Middlewares/Third_Party/LoRaWAN/Utilities/timeServer.c ****   obj->IsNext2Expire = false;
 1113              		.loc 1 130 0
 1114 00e4 0123     		movs	r3, #1
 1115 00e6 2B72     		strb	r3, [r5, #8]
 135:../../../../../../Middlewares/Third_Party/LoRaWAN/Utilities/timeServer.c ****     TimerInsertNewHeadTimer( obj ); // insert a timeout at now+obj->Timestamp
 1116              		.loc 1 135 0
 1117 00e8 FFF7FEFF 		bl	HW_RTC_SetTimerContext
 1118              	.LVL120:
 1119              	.LBB196:
 1120              	.LBB197:
 392:../../../../../../Middlewares/Third_Party/LoRaWAN/Utilities/timeServer.c **** 
 1121              		.loc 1 392 0
 1122 00ec 3368     		ldr	r3, [r6]
 1123              	.LVL121:
 394:../../../../../../Middlewares/Third_Party/LoRaWAN/Utilities/timeServer.c ****   {
 1124              		.loc 1 394 0
 1125 00ee 002B     		cmp	r3, #0
 1126 00f0 00D0     		beq	.L137
 396:../../../../../../Middlewares/Third_Party/LoRaWAN/Utilities/timeServer.c ****   }
 1127              		.loc 1 396 0
 1128 00f2 5C72     		strb	r4, [r3, #9]
 1129              	.L137:
 399:../../../../../../Middlewares/Third_Party/LoRaWAN/Utilities/timeServer.c ****   TimerListHead = obj;
 1130              		.loc 1 399 0
 1131 00f4 6B61     		str	r3, [r5, #20]
 1132              		.loc 1 400 0
 1133 00f6 3560     		str	r5, [r6]
 1134              	.LVL122:
 1135              	.LBB198:
 1136              	.LBB199:
 349:../../../../../../Middlewares/Third_Party/LoRaWAN/Utilities/timeServer.c ****   obj->IsNext2Expire = true; 
 1137              		.loc 1 349 0
 1138 00f8 FFF7FEFF 		bl	HW_RTC_GetMinimumTimeout
 1139              	.LVL123:
 350:../../../../../../Middlewares/Third_Party/LoRaWAN/Utilities/timeServer.c **** 
 1140              		.loc 1 350 0
 1141 00fc 0123     		movs	r3, #1
 349:../../../../../../Middlewares/Third_Party/LoRaWAN/Utilities/timeServer.c ****   obj->IsNext2Expire = true; 
ARM GAS  C:\Users\EBANO_~1\AppData\Local\Temp\ccLhCSjo.s 			page 37


 1142              		.loc 1 349 0
 1143 00fe 0400     		movs	r4, r0
 1144              	.LVL124:
 1145              	.L156:
 1146              	.LBE199:
 1147              	.LBE198:
 1148              	.LBE197:
 1149              	.LBE196:
 1150              	.LBB200:
 1151              	.LBB201:
 1152              	.LBB202:
 1153              	.LBB203:
 350:../../../../../../Middlewares/Third_Party/LoRaWAN/Utilities/timeServer.c **** 
 1154              		.loc 1 350 0
 1155 0100 6B72     		strb	r3, [r5, #9]
 353:../../../../../../Middlewares/Third_Party/LoRaWAN/Utilities/timeServer.c ****   {
 1156              		.loc 1 353 0
 1157 0102 2E68     		ldr	r6, [r5]
 1158 0104 FFF7FEFF 		bl	HW_RTC_GetTimerElapsedTime
 1159              	.LVL125:
 1160 0108 2018     		adds	r0, r4, r0
 1161 010a 8642     		cmp	r6, r0
 1162 010c 12D3     		bcc	.L129
 1163 010e 2868     		ldr	r0, [r5]
 1164              	.L130:
 357:../../../../../../Middlewares/Third_Party/LoRaWAN/Utilities/timeServer.c **** }
 1165              		.loc 1 357 0
 1166 0110 FFF7FEFF 		bl	HW_RTC_SetAlarm
 1167              	.LVL126:
 1168 0114 A1E7     		b	.L128
 1169              	.L162:
 1170              	.LVL127:
 1171              	.LBE203:
 1172              	.LBE202:
 396:../../../../../../Middlewares/Third_Party/LoRaWAN/Utilities/timeServer.c ****   }
 1173              		.loc 1 396 0
 1174 0116 4C72     		strb	r4, [r1, #9]
 399:../../../../../../Middlewares/Third_Party/LoRaWAN/Utilities/timeServer.c ****   TimerListHead = obj;
 1175              		.loc 1 399 0
 1176 0118 6961     		str	r1, [r5, #20]
 1177              		.loc 1 400 0
 1178 011a 3560     		str	r5, [r6]
 1179              	.LVL128:
 1180              	.LBB206:
 1181              	.LBB204:
 349:../../../../../../Middlewares/Third_Party/LoRaWAN/Utilities/timeServer.c ****   obj->IsNext2Expire = true; 
 1182              		.loc 1 349 0
 1183 011c FFF7FEFF 		bl	HW_RTC_GetMinimumTimeout
 1184              	.LVL129:
 350:../../../../../../Middlewares/Third_Party/LoRaWAN/Utilities/timeServer.c **** 
 1185              		.loc 1 350 0
 1186 0120 4346     		mov	r3, r8
 349:../../../../../../Middlewares/Third_Party/LoRaWAN/Utilities/timeServer.c ****   obj->IsNext2Expire = true; 
 1187              		.loc 1 349 0
 1188 0122 0400     		movs	r4, r0
 1189              	.LVL130:
 1190 0124 ECE7     		b	.L156
ARM GAS  C:\Users\EBANO_~1\AppData\Local\Temp\ccLhCSjo.s 			page 38


 1191              	.LVL131:
 1192              	.L164:
 1193              	.LBE204:
 1194              	.LBE206:
 1195              	.LBE201:
 1196              	.LBE200:
 1197              	.LBB209:
 1198              	.LBB194:
 373:../../../../../../Middlewares/Third_Party/LoRaWAN/Utilities/timeServer.c ****     {
 1199              		.loc 1 373 0
 1200 0126 1300     		movs	r3, r2
 1201 0128 0A00     		movs	r2, r1
 1202              	.LVL132:
 1203              	.L133:
 380:../../../../../../Middlewares/Third_Party/LoRaWAN/Utilities/timeServer.c ****         obj->Next = next;
 1204              		.loc 1 380 0
 1205 012a 5561     		str	r5, [r2, #20]
 381:../../../../../../Middlewares/Third_Party/LoRaWAN/Utilities/timeServer.c ****         return;
 1206              		.loc 1 381 0
 1207 012c 6B61     		str	r3, [r5, #20]
 1208 012e 94E7     		b	.L128
 1209              	.LVL133:
 1210              	.L110:
 1211              	.LBE194:
 1212              	.LBE209:
 1213              	.LBE213:
 1214              	.LBE218:
 1215              	.LBB219:
 1216              	.LBB179:
 260:../../../../../../Middlewares/Third_Party/LoRaWAN/Utilities/timeServer.c ****       }
 1217              		.loc 1 260 0
 1218 0130 3760     		str	r7, [r6]
 1219 0132 82E7     		b	.L114
 1220              	.LVL134:
 1221              	.L129:
 1222              	.LBE179:
 1223              	.LBE219:
 1224              	.LBB220:
 1225              	.LBB214:
 1226              	.LBB210:
 1227              	.LBB208:
 1228              	.LBB207:
 1229              	.LBB205:
 355:../../../../../../Middlewares/Third_Party/LoRaWAN/Utilities/timeServer.c ****   }
 1230              		.loc 1 355 0
 1231 0134 FFF7FEFF 		bl	HW_RTC_GetTimerElapsedTime
 1232              	.LVL135:
 1233 0138 2018     		adds	r0, r4, r0
 1234 013a 2860     		str	r0, [r5]
 1235 013c E8E7     		b	.L130
 1236              	.LVL136:
 1237              	.L112:
 1238              	.LBE205:
 1239              	.LBE207:
 1240              	.LBE208:
 1241              	.LBE210:
 1242              	.LBE214:
ARM GAS  C:\Users\EBANO_~1\AppData\Local\Temp\ccLhCSjo.s 			page 39


 1243              	.LBE220:
 1244              	.LBB221:
 1245              	.LBB180:
 1246              	.LBB177:
 1247              	.LBB176:
 1248 013e FFF7FEFF 		bl	HW_RTC_GetTimerElapsedTime
 1249              	.LVL137:
 1250 0142 4044     		add	r0, r0, r8
 1251 0144 3860     		str	r0, [r7]
 1252 0146 C5E7     		b	.L113
 1253              	.LVL138:
 1254              	.L163:
 1255              	.LBE176:
 1256              	.LBE177:
 1257              	.LBE180:
 1258              	.LBE221:
 1259              	.LBB222:
 1260              	.LBB215:
 1261              	.LBB211:
 1262              	.LBB195:
 371:../../../../../../Middlewares/Third_Party/LoRaWAN/Utilities/timeServer.c ****   {  
 1263              		.loc 1 371 0
 1264 0148 0A00     		movs	r2, r1
 1265              	.LVL139:
 1266 014a AAE7     		b	.L132
 1267              	.LVL140:
 1268              	.L111:
 1269              	.LBE195:
 1270              	.LBE211:
 1271              	.LBE215:
 1272              	.LBE222:
 1273              	.LBB223:
 1274              	.LBB181:
 248:../../../../../../Middlewares/Third_Party/LoRaWAN/Utilities/timeServer.c ****         TimerListHead = NULL;
 1275              		.loc 1 248 0
 1276 014c FFF7FEFF 		bl	HW_RTC_StopAlarm
 1277              	.LVL141:
 249:../../../../../../Middlewares/Third_Party/LoRaWAN/Utilities/timeServer.c ****       }
 1278              		.loc 1 249 0
 1279 0150 3760     		str	r7, [r6]
 1280 0152 72E7     		b	.L114
 1281              	.L166:
 1282              		.align	2
 1283              	.L165:
 1284 0154 00000000 		.word	.LANCHOR0
 1285              	.LBE181:
 1286              	.LBE223:
 1287              		.cfi_endproc
 1288              	.LFE45:
 1289              		.size	TimerReset, .-TimerReset
 1290              		.section	.text.TimerSetValue,"ax",%progbits
 1291              		.align	1
 1292              		.p2align 2,,3
 1293              		.global	TimerSetValue
 1294              		.syntax unified
 1295              		.code	16
 1296              		.thumb_func
ARM GAS  C:\Users\EBANO_~1\AppData\Local\Temp\ccLhCSjo.s 			page 40


 1297              		.fpu softvfp
 1298              		.type	TimerSetValue, %function
 1299              	TimerSetValue:
 1300              	.LFB46:
 302:../../../../../../Middlewares/Third_Party/LoRaWAN/Utilities/timeServer.c ****   uint32_t minValue = 0;
 1301              		.loc 1 302 0
 1302              		.cfi_startproc
 1303              		@ args = 0, pretend = 0, frame = 0
 1304              		@ frame_needed = 0, uses_anonymous_args = 0
 1305              	.LVL142:
 1306 0000 F8B5     		push	{r3, r4, r5, r6, r7, lr}
 1307              	.LCFI6:
 1308              		.cfi_def_cfa_offset 24
 1309              		.cfi_offset 3, -24
 1310              		.cfi_offset 4, -20
 1311              		.cfi_offset 5, -16
 1312              		.cfi_offset 6, -12
 1313              		.cfi_offset 7, -8
 1314              		.cfi_offset 14, -4
 1315 0002 CE46     		mov	lr, r9
 1316 0004 4746     		mov	r7, r8
 1317 0006 0400     		movs	r4, r0
 1318 0008 80B5     		push	{r7, lr}
 1319              	.LCFI7:
 1320              		.cfi_def_cfa_offset 32
 1321              		.cfi_offset 8, -32
 1322              		.cfi_offset 9, -28
 304:../../../../../../Middlewares/Third_Party/LoRaWAN/Utilities/timeServer.c **** 
 1323              		.loc 1 304 0
 1324 000a 0800     		movs	r0, r1
 1325              	.LVL143:
 1326 000c FFF7FEFF 		bl	HW_RTC_ms2Tick
 1327              	.LVL144:
 1328 0010 0500     		movs	r5, r0
 1329              	.LVL145:
 1330              	.LBB236:
 1331              	.LBB237:
 1332              	.LBB238:
 1333              	.LBB239:
 313:../../../../../../Drivers/CMSIS/Include/cmsis_gcc.h ****   return(result);
 1334              		.loc 2 313 0
 1335              		.syntax divided
 1336              	@ 313 "../../../../../../Drivers/CMSIS/Include/cmsis_gcc.h" 1
 1337 0012 EFF31087 		MRS r7, primask
 1338              	@ 0 "" 2
 1339              		.thumb
 1340              		.syntax unified
 1341              	.LBE239:
 1342              	.LBE238:
 1343              	.LBB240:
 1344              	.LBB241:
  96:../../../../../../Drivers/CMSIS/Include/cmsis_gcc.h **** }
 1345              		.loc 2 96 0
 1346              		.syntax divided
 1347              	@ 96 "../../../../../../Drivers/CMSIS/Include/cmsis_gcc.h" 1
 1348 0016 72B6     		cpsid i
 1349              	@ 0 "" 2
ARM GAS  C:\Users\EBANO_~1\AppData\Local\Temp\ccLhCSjo.s 			page 41


 1350              		.thumb
 1351              		.syntax unified
 1352              	.LBE241:
 1353              	.LBE240:
 223:../../../../../../Middlewares/Third_Party/LoRaWAN/Utilities/timeServer.c ****   TimerEvent_t* cur = TimerListHead;
 1354              		.loc 1 223 0
 1355 0018 264E     		ldr	r6, .L194
 1356 001a 3168     		ldr	r1, [r6]
 1357              	.LVL146:
 227:../../../../../../Middlewares/Third_Party/LoRaWAN/Utilities/timeServer.c ****   {
 1358              		.loc 1 227 0
 1359 001c 0029     		cmp	r1, #0
 1360 001e 10D0     		beq	.L176
 1361 0020 002C     		cmp	r4, #0
 1362 0022 0ED0     		beq	.L176
 233:../../../../../../Middlewares/Third_Party/LoRaWAN/Utilities/timeServer.c **** 
 1363              		.loc 1 233 0
 1364 0024 0023     		movs	r3, #0
 1365 0026 2372     		strb	r3, [r4, #8]
 235:../../../../../../Middlewares/Third_Party/LoRaWAN/Utilities/timeServer.c ****   {
 1366              		.loc 1 235 0
 1367 0028 8C42     		cmp	r4, r1
 1368 002a 17D0     		beq	.L191
 285:../../../../../../Middlewares/Third_Party/LoRaWAN/Utilities/timeServer.c ****       }
 1369              		.loc 1 285 0
 1370 002c 4B69     		ldr	r3, [r1, #20]
 1371              	.LVL147:
 266:../../../../../../Middlewares/Third_Party/LoRaWAN/Utilities/timeServer.c ****     {
 1372              		.loc 1 266 0
 1373 002e 002B     		cmp	r3, #0
 1374 0030 01D1     		bne	.L178
 1375 0032 06E0     		b	.L176
 1376              	.LVL148:
 1377              	.L193:
 1378 0034 1300     		movs	r3, r2
 1379              	.LVL149:
 1380              	.L178:
 1381 0036 5A69     		ldr	r2, [r3, #20]
 268:../../../../../../Middlewares/Third_Party/LoRaWAN/Utilities/timeServer.c ****       {
 1382              		.loc 1 268 0
 1383 0038 9C42     		cmp	r4, r3
 1384 003a 2BD0     		beq	.L192
 1385              	.LVL150:
 1386 003c 1900     		movs	r1, r3
 266:../../../../../../Middlewares/Third_Party/LoRaWAN/Utilities/timeServer.c ****     {
 1387              		.loc 1 266 0
 1388 003e 002A     		cmp	r2, #0
 1389 0040 F8D1     		bne	.L193
 1390              	.LVL151:
 1391              	.L176:
 1392              	.LBB242:
 1393              	.LBB243:
 1394              		.loc 2 341 0
 1395              		.syntax divided
 1396              	@ 341 "../../../../../../Drivers/CMSIS/Include/cmsis_gcc.h" 1
 1397 0042 87F31088 		MSR primask, r7
 1398              	@ 0 "" 2
ARM GAS  C:\Users\EBANO_~1\AppData\Local\Temp\ccLhCSjo.s 			page 42


 1399              	.LVL152:
 1400              		.thumb
 1401              		.syntax unified
 1402              	.LBE243:
 1403              	.LBE242:
 1404              	.LBE237:
 1405              	.LBE236:
 308:../../../../../../Middlewares/Third_Party/LoRaWAN/Utilities/timeServer.c ****   
 1406              		.loc 1 308 0
 1407 0046 FFF7FEFF 		bl	HW_RTC_GetMinimumTimeout
 1408              	.LVL153:
 1409 004a 8542     		cmp	r5, r0
 1410 004c 00D2     		bcs	.L182
 1411 004e 0500     		movs	r5, r0
 1412              	.LVL154:
 1413              	.L182:
 315:../../../../../../Middlewares/Third_Party/LoRaWAN/Utilities/timeServer.c ****   obj->ReloadValue = ticks;
 1414              		.loc 1 315 0
 1415 0050 2560     		str	r5, [r4]
 316:../../../../../../Middlewares/Third_Party/LoRaWAN/Utilities/timeServer.c **** }
 1416              		.loc 1 316 0
 1417 0052 6560     		str	r5, [r4, #4]
 317:../../../../../../Middlewares/Third_Party/LoRaWAN/Utilities/timeServer.c **** 
 1418              		.loc 1 317 0
 1419              		@ sp needed
 1420              	.LVL155:
 1421              	.LVL156:
 1422              	.LVL157:
 1423 0054 0CBC     		pop	{r2, r3}
 1424 0056 9046     		mov	r8, r2
 1425 0058 9946     		mov	r9, r3
 1426 005a F8BD     		pop	{r3, r4, r5, r6, r7, pc}
 1427              	.LVL158:
 1428              	.L191:
 1429 005c 6269     		ldr	r2, [r4, #20]
 1430 005e 9046     		mov	r8, r2
 1431              	.LBB249:
 1432              	.LBB248:
 237:../../../../../../Middlewares/Third_Party/LoRaWAN/Utilities/timeServer.c ****     {  
 1433              		.loc 1 237 0
 1434 0060 627A     		ldrb	r2, [r4, #9]
 1435 0062 002A     		cmp	r2, #0
 1436 0064 18D0     		beq	.L172
 240:../../../../../../Middlewares/Third_Party/LoRaWAN/Utilities/timeServer.c ****       if( TimerListHead->Next != NULL )
 1437              		.loc 1 240 0
 1438 0066 6372     		strb	r3, [r4, #9]
 241:../../../../../../Middlewares/Third_Party/LoRaWAN/Utilities/timeServer.c ****       {
 1439              		.loc 1 241 0
 1440 0068 4346     		mov	r3, r8
 1441 006a 002B     		cmp	r3, #0
 1442 006c 1DD0     		beq	.L173
 243:../../../../../../Middlewares/Third_Party/LoRaWAN/Utilities/timeServer.c ****         TimerSetTimeout( TimerListHead );
 1443              		.loc 1 243 0
 1444 006e 3360     		str	r3, [r6]
 1445              	.LVL159:
 1446              	.LBB244:
 1447              	.LBB245:
ARM GAS  C:\Users\EBANO_~1\AppData\Local\Temp\ccLhCSjo.s 			page 43


 349:../../../../../../Middlewares/Third_Party/LoRaWAN/Utilities/timeServer.c ****   obj->IsNext2Expire = true; 
 1448              		.loc 1 349 0
 1449 0070 FFF7FEFF 		bl	HW_RTC_GetMinimumTimeout
 1450              	.LVL160:
 350:../../../../../../Middlewares/Third_Party/LoRaWAN/Utilities/timeServer.c **** 
 1451              		.loc 1 350 0
 1452 0074 4246     		mov	r2, r8
 1453 0076 0123     		movs	r3, #1
 1454 0078 5372     		strb	r3, [r2, #9]
 353:../../../../../../Middlewares/Third_Party/LoRaWAN/Utilities/timeServer.c ****   {
 1455              		.loc 1 353 0
 1456 007a 1368     		ldr	r3, [r2]
 349:../../../../../../Middlewares/Third_Party/LoRaWAN/Utilities/timeServer.c ****   obj->IsNext2Expire = true; 
 1457              		.loc 1 349 0
 1458 007c 0600     		movs	r6, r0
 1459              	.LVL161:
 353:../../../../../../Middlewares/Third_Party/LoRaWAN/Utilities/timeServer.c ****   {
 1460              		.loc 1 353 0
 1461 007e 9946     		mov	r9, r3
 1462 0080 FFF7FEFF 		bl	HW_RTC_GetTimerElapsedTime
 1463              	.LVL162:
 1464 0084 3018     		adds	r0, r6, r0
 1465 0086 8145     		cmp	r9, r0
 1466 0088 09D3     		bcc	.L174
 1467 008a 4346     		mov	r3, r8
 1468 008c 1868     		ldr	r0, [r3]
 1469              	.L175:
 357:../../../../../../Middlewares/Third_Party/LoRaWAN/Utilities/timeServer.c **** }
 1470              		.loc 1 357 0
 1471 008e FFF7FEFF 		bl	HW_RTC_SetAlarm
 1472              	.LVL163:
 1473 0092 D6E7     		b	.L176
 1474              	.LVL164:
 1475              	.L192:
 1476              	.LBE245:
 1477              	.LBE244:
 278:../../../../../../Middlewares/Third_Party/LoRaWAN/Utilities/timeServer.c ****         }
 1478              		.loc 1 278 0
 1479 0094 4A61     		str	r2, [r1, #20]
 1480 0096 D4E7     		b	.L176
 1481              	.LVL165:
 1482              	.L172:
 260:../../../../../../Middlewares/Third_Party/LoRaWAN/Utilities/timeServer.c ****       }
 1483              		.loc 1 260 0
 1484 0098 4346     		mov	r3, r8
 1485 009a 3360     		str	r3, [r6]
 1486 009c D1E7     		b	.L176
 1487              	.LVL166:
 1488              	.L174:
 1489              	.LBB247:
 1490              	.LBB246:
 355:../../../../../../Middlewares/Third_Party/LoRaWAN/Utilities/timeServer.c ****   }
 1491              		.loc 1 355 0
 1492 009e FFF7FEFF 		bl	HW_RTC_GetTimerElapsedTime
 1493              	.LVL167:
 1494 00a2 4346     		mov	r3, r8
 1495 00a4 3018     		adds	r0, r6, r0
ARM GAS  C:\Users\EBANO_~1\AppData\Local\Temp\ccLhCSjo.s 			page 44


 1496 00a6 1860     		str	r0, [r3]
 1497 00a8 F1E7     		b	.L175
 1498              	.LVL168:
 1499              	.L173:
 1500              	.LBE246:
 1501              	.LBE247:
 248:../../../../../../Middlewares/Third_Party/LoRaWAN/Utilities/timeServer.c ****         TimerListHead = NULL;
 1502              		.loc 1 248 0
 1503 00aa FFF7FEFF 		bl	HW_RTC_StopAlarm
 1504              	.LVL169:
 249:../../../../../../Middlewares/Third_Party/LoRaWAN/Utilities/timeServer.c ****       }
 1505              		.loc 1 249 0
 1506 00ae 4346     		mov	r3, r8
 1507 00b0 3360     		str	r3, [r6]
 1508 00b2 C6E7     		b	.L176
 1509              	.L195:
 1510              		.align	2
 1511              	.L194:
 1512 00b4 00000000 		.word	.LANCHOR0
 1513              	.LBE248:
 1514              	.LBE249:
 1515              		.cfi_endproc
 1516              	.LFE46:
 1517              		.size	TimerSetValue, .-TimerSetValue
 1518              		.section	.text.TimerGetCurrentTime,"ax",%progbits
 1519              		.align	1
 1520              		.p2align 2,,3
 1521              		.global	TimerGetCurrentTime
 1522              		.syntax unified
 1523              		.code	16
 1524              		.thumb_func
 1525              		.fpu softvfp
 1526              		.type	TimerGetCurrentTime, %function
 1527              	TimerGetCurrentTime:
 1528              	.LFB47:
 320:../../../../../../Middlewares/Third_Party/LoRaWAN/Utilities/timeServer.c ****   uint32_t now = HW_RTC_GetTimerValue( );
 1529              		.loc 1 320 0
 1530              		.cfi_startproc
 1531              		@ args = 0, pretend = 0, frame = 0
 1532              		@ frame_needed = 0, uses_anonymous_args = 0
 1533 0000 10B5     		push	{r4, lr}
 1534              	.LCFI8:
 1535              		.cfi_def_cfa_offset 8
 1536              		.cfi_offset 4, -8
 1537              		.cfi_offset 14, -4
 321:../../../../../../Middlewares/Third_Party/LoRaWAN/Utilities/timeServer.c ****   return  HW_RTC_Tick2ms(now);
 1538              		.loc 1 321 0
 1539 0002 FFF7FEFF 		bl	HW_RTC_GetTimerValue
 1540              	.LVL170:
 322:../../../../../../Middlewares/Third_Party/LoRaWAN/Utilities/timeServer.c **** }
 1541              		.loc 1 322 0
 1542 0006 FFF7FEFF 		bl	HW_RTC_Tick2ms
 1543              	.LVL171:
 323:../../../../../../Middlewares/Third_Party/LoRaWAN/Utilities/timeServer.c **** 
 1544              		.loc 1 323 0
 1545              		@ sp needed
 1546 000a 10BD     		pop	{r4, pc}
ARM GAS  C:\Users\EBANO_~1\AppData\Local\Temp\ccLhCSjo.s 			page 45


 1547              		.cfi_endproc
 1548              	.LFE47:
 1549              		.size	TimerGetCurrentTime, .-TimerGetCurrentTime
 1550              		.section	.text.TimerGetElapsedTime,"ax",%progbits
 1551              		.align	1
 1552              		.p2align 2,,3
 1553              		.global	TimerGetElapsedTime
 1554              		.syntax unified
 1555              		.code	16
 1556              		.thumb_func
 1557              		.fpu softvfp
 1558              		.type	TimerGetElapsedTime, %function
 1559              	TimerGetElapsedTime:
 1560              	.LFB48:
 326:../../../../../../Middlewares/Third_Party/LoRaWAN/Utilities/timeServer.c ****   uint32_t nowInTicks = HW_RTC_GetTimerValue( );
 1561              		.loc 1 326 0
 1562              		.cfi_startproc
 1563              		@ args = 0, pretend = 0, frame = 0
 1564              		@ frame_needed = 0, uses_anonymous_args = 0
 1565              	.LVL172:
 1566 0000 70B5     		push	{r4, r5, r6, lr}
 1567              	.LCFI9:
 1568              		.cfi_def_cfa_offset 16
 1569              		.cfi_offset 4, -16
 1570              		.cfi_offset 5, -12
 1571              		.cfi_offset 6, -8
 1572              		.cfi_offset 14, -4
 326:../../../../../../Middlewares/Third_Party/LoRaWAN/Utilities/timeServer.c ****   uint32_t nowInTicks = HW_RTC_GetTimerValue( );
 1573              		.loc 1 326 0
 1574 0002 0500     		movs	r5, r0
 327:../../../../../../Middlewares/Third_Party/LoRaWAN/Utilities/timeServer.c ****   uint32_t pastInTicks = HW_RTC_ms2Tick( past );
 1575              		.loc 1 327 0
 1576 0004 FFF7FEFF 		bl	HW_RTC_GetTimerValue
 1577              	.LVL173:
 1578 0008 0400     		movs	r4, r0
 1579              	.LVL174:
 328:../../../../../../Middlewares/Third_Party/LoRaWAN/Utilities/timeServer.c ****   /* intentional wrap around. Works Ok if tick duation below 1ms */
 1580              		.loc 1 328 0
 1581 000a 2800     		movs	r0, r5
 1582              	.LVL175:
 1583 000c FFF7FEFF 		bl	HW_RTC_ms2Tick
 1584              	.LVL176:
 330:../../../../../../Middlewares/Third_Party/LoRaWAN/Utilities/timeServer.c **** }
 1585              		.loc 1 330 0
 1586 0010 201A     		subs	r0, r4, r0
 1587              	.LVL177:
 1588 0012 FFF7FEFF 		bl	HW_RTC_Tick2ms
 1589              	.LVL178:
 331:../../../../../../Middlewares/Third_Party/LoRaWAN/Utilities/timeServer.c **** 
 1590              		.loc 1 331 0
 1591              		@ sp needed
 1592              	.LVL179:
 1593              	.LVL180:
 1594 0016 70BD     		pop	{r4, r5, r6, pc}
 1595              		.cfi_endproc
 1596              	.LFE48:
 1597              		.size	TimerGetElapsedTime, .-TimerGetElapsedTime
ARM GAS  C:\Users\EBANO_~1\AppData\Local\Temp\ccLhCSjo.s 			page 46


 1598              		.section	.text.TimerTempCompensation,"ax",%progbits
 1599              		.align	1
 1600              		.p2align 2,,3
 1601              		.global	TimerTempCompensation
 1602              		.syntax unified
 1603              		.code	16
 1604              		.thumb_func
 1605              		.fpu softvfp
 1606              		.type	TimerTempCompensation, %function
 1607              	TimerTempCompensation:
 1608              	.LFB51:
 361:../../../../../../Middlewares/Third_Party/LoRaWAN/Utilities/timeServer.c ****     return RtcTempCompensation( period, temperature );
 1609              		.loc 1 361 0
 1610              		.cfi_startproc
 1611              		@ args = 0, pretend = 0, frame = 0
 1612              		@ frame_needed = 0, uses_anonymous_args = 0
 1613              	.LVL181:
 1614 0000 10B5     		push	{r4, lr}
 1615              	.LCFI10:
 1616              		.cfi_def_cfa_offset 8
 1617              		.cfi_offset 4, -8
 1618              		.cfi_offset 14, -4
 362:../../../../../../Middlewares/Third_Party/LoRaWAN/Utilities/timeServer.c **** }
 1619              		.loc 1 362 0
 1620 0002 FFF7FEFF 		bl	RtcTempCompensation
 1621              	.LVL182:
 363:../../../../../../Middlewares/Third_Party/LoRaWAN/Utilities/timeServer.c **** 
 1622              		.loc 1 363 0
 1623              		@ sp needed
 1624 0006 10BD     		pop	{r4, pc}
 1625              		.cfi_endproc
 1626              	.LFE51:
 1627              		.size	TimerTempCompensation, .-TimerTempCompensation
 1628              		.bss
 1629              		.align	2
 1630              		.set	.LANCHOR0,. + 0
 1631              		.type	TimerListHead, %object
 1632              		.size	TimerListHead, 4
 1633              	TimerListHead:
 1634 0000 00000000 		.space	4
 1635              		.text
 1636              	.Letext0:
 1637              		.file 3 "c:\\program files (x86)\\gnu tools arm embedded\\7 2018-q2-update\\arm-none-eabi\\include
 1638              		.file 4 "c:\\program files (x86)\\gnu tools arm embedded\\7 2018-q2-update\\arm-none-eabi\\include
 1639              		.file 5 "c:\\program files (x86)\\gnu tools arm embedded\\7 2018-q2-update\\arm-none-eabi\\include
 1640              		.file 6 "c:\\program files (x86)\\gnu tools arm embedded\\7 2018-q2-update\\lib\\gcc\\arm-none-eab
 1641              		.file 7 "c:\\program files (x86)\\gnu tools arm embedded\\7 2018-q2-update\\arm-none-eabi\\include
 1642              		.file 8 "c:\\program files (x86)\\gnu tools arm embedded\\7 2018-q2-update\\arm-none-eabi\\include
 1643              		.file 9 "c:\\program files (x86)\\gnu tools arm embedded\\7 2018-q2-update\\arm-none-eabi\\include
 1644              		.file 10 "c:\\program files (x86)\\gnu tools arm embedded\\7 2018-q2-update\\arm-none-eabi\\includ
 1645              		.file 11 "../../../../../../Drivers/CMSIS/Device/ST/STM32L0xx/Include/system_stm32l0xx.h"
 1646              		.file 12 "c:\\program files (x86)\\gnu tools arm embedded\\7 2018-q2-update\\arm-none-eabi\\includ
 1647              		.file 13 "../../../../../../Middlewares/Third_Party/LoRaWAN/Utilities/utilities.h"
 1648              		.file 14 "../../../../../../Middlewares/Third_Party/LoRaWAN/Utilities/timeServer.h"
 1649              		.file 15 "../LoRaWAN/App/inc/hw_rtc.h"