ARM GAS  C:\Users\EBANO_~1\AppData\Local\Temp\ccfjbou7.s 			page 1


   1              		.cpu cortex-m0plus
   2              		.eabi_attribute 20, 1
   3              		.eabi_attribute 21, 1
   4              		.eabi_attribute 23, 3
   5              		.eabi_attribute 24, 1
   6              		.eabi_attribute 25, 1
   7              		.eabi_attribute 26, 1
   8              		.eabi_attribute 30, 2
   9              		.eabi_attribute 34, 0
  10              		.eabi_attribute 18, 4
  11              		.file	"trace.c"
  12              		.text
  13              	.Ltext0:
  14              		.cfi_sections	.debug_frame
  15              		.section	.text.Trace_TxCpltCallback,"ax",%progbits
  16              		.align	1
  17              		.p2align 2,,3
  18              		.syntax unified
  19              		.code	16
  20              		.thumb_func
  21              		.fpu softvfp
  22              		.type	Trace_TxCpltCallback, %function
  23              	Trace_TxCpltCallback:
  24              	.LFB42:
  25              		.file 1 "../../../../../../Middlewares/Third_Party/LoRaWAN/Utilities/trace.c"
   1:../../../../../../Middlewares/Third_Party/LoRaWAN/Utilities/trace.c **** /**
   2:../../../../../../Middlewares/Third_Party/LoRaWAN/Utilities/trace.c ****   ******************************************************************************
   3:../../../../../../Middlewares/Third_Party/LoRaWAN/Utilities/trace.c ****   * @file    trace.c
   4:../../../../../../Middlewares/Third_Party/LoRaWAN/Utilities/trace.c ****   * @author  MCD Application Team
   5:../../../../../../Middlewares/Third_Party/LoRaWAN/Utilities/trace.c ****   * @brief   This file contains the Interface with BLE Drivers functions.
   6:../../../../../../Middlewares/Third_Party/LoRaWAN/Utilities/trace.c ****   ******************************************************************************
   7:../../../../../../Middlewares/Third_Party/LoRaWAN/Utilities/trace.c ****   * @attention
   8:../../../../../../Middlewares/Third_Party/LoRaWAN/Utilities/trace.c ****   *
   9:../../../../../../Middlewares/Third_Party/LoRaWAN/Utilities/trace.c ****   * <h2><center>&copy; Copyright (c) 2018 STMicroelectronics.
  10:../../../../../../Middlewares/Third_Party/LoRaWAN/Utilities/trace.c ****   * All rights reserved.</center></h2>
  11:../../../../../../Middlewares/Third_Party/LoRaWAN/Utilities/trace.c ****   *
  12:../../../../../../Middlewares/Third_Party/LoRaWAN/Utilities/trace.c ****   * This software component is licensed by ST under Ultimate Liberty license
  13:../../../../../../Middlewares/Third_Party/LoRaWAN/Utilities/trace.c ****   * SLA0044, the "License"; You may not use this file except in compliance with
  14:../../../../../../Middlewares/Third_Party/LoRaWAN/Utilities/trace.c ****   * the License. You may obtain a copy of the License at:
  15:../../../../../../Middlewares/Third_Party/LoRaWAN/Utilities/trace.c ****   *                             www.st.com/SLA0044
  16:../../../../../../Middlewares/Third_Party/LoRaWAN/Utilities/trace.c ****   *
  17:../../../../../../Middlewares/Third_Party/LoRaWAN/Utilities/trace.c ****   ******************************************************************************
  18:../../../../../../Middlewares/Third_Party/LoRaWAN/Utilities/trace.c ****   */
  19:../../../../../../Middlewares/Third_Party/LoRaWAN/Utilities/trace.c **** 
  20:../../../../../../Middlewares/Third_Party/LoRaWAN/Utilities/trace.c **** /* Includes ------------------------------------------------------------------*/
  21:../../../../../../Middlewares/Third_Party/LoRaWAN/Utilities/trace.c **** #include <stdint.h>
  22:../../../../../../Middlewares/Third_Party/LoRaWAN/Utilities/trace.c **** #include <string.h>
  23:../../../../../../Middlewares/Third_Party/LoRaWAN/Utilities/trace.c **** #include <stdarg.h>
  24:../../../../../../Middlewares/Third_Party/LoRaWAN/Utilities/trace.c **** #include "utilities.h"
  25:../../../../../../Middlewares/Third_Party/LoRaWAN/Utilities/trace.c **** #include "queue.h"
  26:../../../../../../Middlewares/Third_Party/LoRaWAN/Utilities/trace.c **** #include "trace.h"
  27:../../../../../../Middlewares/Third_Party/LoRaWAN/Utilities/trace.c **** #include "low_power_manager.h"
  28:../../../../../../Middlewares/Third_Party/LoRaWAN/Utilities/trace.c **** #include "debug.h"
  29:../../../../../../Middlewares/Third_Party/LoRaWAN/Utilities/trace.c **** /* Private typedef -----------------------------------------------------------*/
  30:../../../../../../Middlewares/Third_Party/LoRaWAN/Utilities/trace.c **** /* Private defines -----------------------------------------------------------*/
  31:../../../../../../Middlewares/Third_Party/LoRaWAN/Utilities/trace.c **** /* Private macros ------------------------------------------------------------*/
  32:../../../../../../Middlewares/Third_Party/LoRaWAN/Utilities/trace.c **** 
ARM GAS  C:\Users\EBANO_~1\AppData\Local\Temp\ccfjbou7.s 			page 2


  33:../../../../../../Middlewares/Third_Party/LoRaWAN/Utilities/trace.c **** #define TEMPBUFSIZE 256
  34:../../../../../../Middlewares/Third_Party/LoRaWAN/Utilities/trace.c **** 
  35:../../../../../../Middlewares/Third_Party/LoRaWAN/Utilities/trace.c **** /* Private variables ---------------------------------------------------------*/
  36:../../../../../../Middlewares/Third_Party/LoRaWAN/Utilities/trace.c **** static queue_param_t MsgTraceQueue;
  37:../../../../../../Middlewares/Third_Party/LoRaWAN/Utilities/trace.c **** static uint8_t MsgTraceQueueBuff[DBG_TRACE_MSG_QUEUE_SIZE];
  38:../../../../../../Middlewares/Third_Party/LoRaWAN/Utilities/trace.c **** 
  39:../../../../../../Middlewares/Third_Party/LoRaWAN/Utilities/trace.c **** __IO ITStatus TracePeripheralReady = SET;
  40:../../../../../../Middlewares/Third_Party/LoRaWAN/Utilities/trace.c **** 
  41:../../../../../../Middlewares/Third_Party/LoRaWAN/Utilities/trace.c **** /* Private function prototypes -----------------------------------------------*/
  42:../../../../../../Middlewares/Third_Party/LoRaWAN/Utilities/trace.c **** 
  43:../../../../../../Middlewares/Third_Party/LoRaWAN/Utilities/trace.c **** /**
  44:../../../../../../Middlewares/Third_Party/LoRaWAN/Utilities/trace.c ****  * @brief  Trace buffer Transfer completed callback
  45:../../../../../../Middlewares/Third_Party/LoRaWAN/Utilities/trace.c ****  * @param  none
  46:../../../../../../Middlewares/Third_Party/LoRaWAN/Utilities/trace.c ****  * @note   Indicate the end of the transmission of a  trace buffer. If queue
  47:../../../../../../Middlewares/Third_Party/LoRaWAN/Utilities/trace.c ****  *         contains new trace data to transmit, start a new transmission.
  48:../../../../../../Middlewares/Third_Party/LoRaWAN/Utilities/trace.c ****  * @retval None
  49:../../../../../../Middlewares/Third_Party/LoRaWAN/Utilities/trace.c ****  */
  50:../../../../../../Middlewares/Third_Party/LoRaWAN/Utilities/trace.c **** static void Trace_TxCpltCallback(void);
  51:../../../../../../Middlewares/Third_Party/LoRaWAN/Utilities/trace.c **** 
  52:../../../../../../Middlewares/Third_Party/LoRaWAN/Utilities/trace.c **** /* Functions Definition ------------------------------------------------------*/
  53:../../../../../../Middlewares/Third_Party/LoRaWAN/Utilities/trace.c **** void TraceInit( void )
  54:../../../../../../Middlewares/Third_Party/LoRaWAN/Utilities/trace.c **** {
  55:../../../../../../Middlewares/Third_Party/LoRaWAN/Utilities/trace.c ****   OutputInit(Trace_TxCpltCallback);
  56:../../../../../../Middlewares/Third_Party/LoRaWAN/Utilities/trace.c **** 
  57:../../../../../../Middlewares/Third_Party/LoRaWAN/Utilities/trace.c ****   circular_queue_init(&MsgTraceQueue, MsgTraceQueueBuff, DBG_TRACE_MSG_QUEUE_SIZE);
  58:../../../../../../Middlewares/Third_Party/LoRaWAN/Utilities/trace.c **** 
  59:../../../../../../Middlewares/Third_Party/LoRaWAN/Utilities/trace.c ****   return;
  60:../../../../../../Middlewares/Third_Party/LoRaWAN/Utilities/trace.c **** }
  61:../../../../../../Middlewares/Third_Party/LoRaWAN/Utilities/trace.c **** 
  62:../../../../../../Middlewares/Third_Party/LoRaWAN/Utilities/trace.c **** int32_t TraceSend( const char *strFormat, ...)
  63:../../../../../../Middlewares/Third_Party/LoRaWAN/Utilities/trace.c **** {
  64:../../../../../../Middlewares/Third_Party/LoRaWAN/Utilities/trace.c ****   char buf[TEMPBUFSIZE];
  65:../../../../../../Middlewares/Third_Party/LoRaWAN/Utilities/trace.c ****   va_list vaArgs;
  66:../../../../../../Middlewares/Third_Party/LoRaWAN/Utilities/trace.c ****   uint8_t* buffer;
  67:../../../../../../Middlewares/Third_Party/LoRaWAN/Utilities/trace.c ****   va_start( vaArgs, strFormat);
  68:../../../../../../Middlewares/Third_Party/LoRaWAN/Utilities/trace.c ****   uint16_t bufSize=vsnprintf(buf,TEMPBUFSIZE,strFormat, vaArgs);
  69:../../../../../../Middlewares/Third_Party/LoRaWAN/Utilities/trace.c ****   va_end(vaArgs);
  70:../../../../../../Middlewares/Third_Party/LoRaWAN/Utilities/trace.c ****   int status=0;
  71:../../../../../../Middlewares/Third_Party/LoRaWAN/Utilities/trace.c ****   
  72:../../../../../../Middlewares/Third_Party/LoRaWAN/Utilities/trace.c ****   BACKUP_PRIMASK();
  73:../../../../../../Middlewares/Third_Party/LoRaWAN/Utilities/trace.c ****   
  74:../../../../../../Middlewares/Third_Party/LoRaWAN/Utilities/trace.c ****   DISABLE_IRQ(); /**< Disable all interrupts by setting PRIMASK bit on Cortex*/
  75:../../../../../../Middlewares/Third_Party/LoRaWAN/Utilities/trace.c ****   //DBG_GPIO_SET(GPIOB, GPIO_PIN_15);
  76:../../../../../../Middlewares/Third_Party/LoRaWAN/Utilities/trace.c ****   //DBG_GPIO_RST(GPIOB, GPIO_PIN_15);
  77:../../../../../../Middlewares/Third_Party/LoRaWAN/Utilities/trace.c ****   status =circular_queue_add(&MsgTraceQueue,(uint8_t*)buf, bufSize);
  78:../../../../../../Middlewares/Third_Party/LoRaWAN/Utilities/trace.c ****   
  79:../../../../../../Middlewares/Third_Party/LoRaWAN/Utilities/trace.c ****   if ((status==0 ) && (TracePeripheralReady==SET))
  80:../../../../../../Middlewares/Third_Party/LoRaWAN/Utilities/trace.c ****   {
  81:../../../../../../Middlewares/Third_Party/LoRaWAN/Utilities/trace.c ****     circular_queue_get(&MsgTraceQueue,&buffer,&bufSize);
  82:../../../../../../Middlewares/Third_Party/LoRaWAN/Utilities/trace.c ****     TracePeripheralReady = RESET;
  83:../../../../../../Middlewares/Third_Party/LoRaWAN/Utilities/trace.c ****     //DBG_GPIO_RST(GPIOB, GPIO_PIN_12);
  84:../../../../../../Middlewares/Third_Party/LoRaWAN/Utilities/trace.c ****     LPM_SetStopMode(LPM_UART_TX_Id , LPM_Disable );
  85:../../../../../../Middlewares/Third_Party/LoRaWAN/Utilities/trace.c **** 
  86:../../../../../../Middlewares/Third_Party/LoRaWAN/Utilities/trace.c ****     RESTORE_PRIMASK();
  87:../../../../../../Middlewares/Third_Party/LoRaWAN/Utilities/trace.c ****     OutputTrace(buffer, bufSize);
  88:../../../../../../Middlewares/Third_Party/LoRaWAN/Utilities/trace.c ****   }
  89:../../../../../../Middlewares/Third_Party/LoRaWAN/Utilities/trace.c ****   else
ARM GAS  C:\Users\EBANO_~1\AppData\Local\Temp\ccfjbou7.s 			page 3


  90:../../../../../../Middlewares/Third_Party/LoRaWAN/Utilities/trace.c ****   {
  91:../../../../../../Middlewares/Third_Party/LoRaWAN/Utilities/trace.c ****     RESTORE_PRIMASK();
  92:../../../../../../Middlewares/Third_Party/LoRaWAN/Utilities/trace.c ****   }
  93:../../../../../../Middlewares/Third_Party/LoRaWAN/Utilities/trace.c ****   
  94:../../../../../../Middlewares/Third_Party/LoRaWAN/Utilities/trace.c ****   return status;
  95:../../../../../../Middlewares/Third_Party/LoRaWAN/Utilities/trace.c **** }
  96:../../../../../../Middlewares/Third_Party/LoRaWAN/Utilities/trace.c **** 
  97:../../../../../../Middlewares/Third_Party/LoRaWAN/Utilities/trace.c **** const char *TraceGetFileName(const char *fullpath)
  98:../../../../../../Middlewares/Third_Party/LoRaWAN/Utilities/trace.c **** {
  99:../../../../../../Middlewares/Third_Party/LoRaWAN/Utilities/trace.c ****   const char *ret = fullpath;
 100:../../../../../../Middlewares/Third_Party/LoRaWAN/Utilities/trace.c **** 
 101:../../../../../../Middlewares/Third_Party/LoRaWAN/Utilities/trace.c ****   if (strrchr(fullpath, '\\') != NULL)
 102:../../../../../../Middlewares/Third_Party/LoRaWAN/Utilities/trace.c ****   {
 103:../../../../../../Middlewares/Third_Party/LoRaWAN/Utilities/trace.c ****     ret = strrchr(fullpath, '\\') + 1;
 104:../../../../../../Middlewares/Third_Party/LoRaWAN/Utilities/trace.c ****   }
 105:../../../../../../Middlewares/Third_Party/LoRaWAN/Utilities/trace.c ****   else if (strrchr(fullpath, '/') != NULL)
 106:../../../../../../Middlewares/Third_Party/LoRaWAN/Utilities/trace.c ****   {
 107:../../../../../../Middlewares/Third_Party/LoRaWAN/Utilities/trace.c ****     ret = strrchr(fullpath, '/') + 1;
 108:../../../../../../Middlewares/Third_Party/LoRaWAN/Utilities/trace.c ****   }
 109:../../../../../../Middlewares/Third_Party/LoRaWAN/Utilities/trace.c **** 
 110:../../../../../../Middlewares/Third_Party/LoRaWAN/Utilities/trace.c ****   return ret;
 111:../../../../../../Middlewares/Third_Party/LoRaWAN/Utilities/trace.c **** }
 112:../../../../../../Middlewares/Third_Party/LoRaWAN/Utilities/trace.c **** 
 113:../../../../../../Middlewares/Third_Party/LoRaWAN/Utilities/trace.c **** /* Private Functions Definition ------------------------------------------------------*/
 114:../../../../../../Middlewares/Third_Party/LoRaWAN/Utilities/trace.c **** 
 115:../../../../../../Middlewares/Third_Party/LoRaWAN/Utilities/trace.c **** static void Trace_TxCpltCallback(void)
 116:../../../../../../Middlewares/Third_Party/LoRaWAN/Utilities/trace.c **** {
  26              		.loc 1 116 0
  27              		.cfi_startproc
  28              		@ args = 0, pretend = 0, frame = 8
  29              		@ frame_needed = 0, uses_anonymous_args = 0
  30 0000 70B5     		push	{r4, r5, r6, lr}
  31              	.LCFI0:
  32              		.cfi_def_cfa_offset 16
  33              		.cfi_offset 4, -16
  34              		.cfi_offset 5, -12
  35              		.cfi_offset 6, -8
  36              		.cfi_offset 14, -4
  37 0002 82B0     		sub	sp, sp, #8
  38              	.LCFI1:
  39              		.cfi_def_cfa_offset 24
  40              	.LBB18:
  41              	.LBB19:
  42              		.file 2 "../../../../../../Drivers/CMSIS/Include/cmsis_gcc.h"
   1:../../../../../../Drivers/CMSIS/Include/cmsis_gcc.h **** /**************************************************************************//**
   2:../../../../../../Drivers/CMSIS/Include/cmsis_gcc.h ****  * @file     cmsis_gcc.h
   3:../../../../../../Drivers/CMSIS/Include/cmsis_gcc.h ****  * @brief    CMSIS compiler GCC header file
   4:../../../../../../Drivers/CMSIS/Include/cmsis_gcc.h ****  * @version  V5.0.1
   5:../../../../../../Drivers/CMSIS/Include/cmsis_gcc.h ****  * @date     02. February 2017
   6:../../../../../../Drivers/CMSIS/Include/cmsis_gcc.h ****  ******************************************************************************/
   7:../../../../../../Drivers/CMSIS/Include/cmsis_gcc.h **** /*
   8:../../../../../../Drivers/CMSIS/Include/cmsis_gcc.h ****  * Copyright (c) 2009-2017 ARM Limited. All rights reserved.
   9:../../../../../../Drivers/CMSIS/Include/cmsis_gcc.h ****  *
  10:../../../../../../Drivers/CMSIS/Include/cmsis_gcc.h ****  * SPDX-License-Identifier: Apache-2.0
  11:../../../../../../Drivers/CMSIS/Include/cmsis_gcc.h ****  *
  12:../../../../../../Drivers/CMSIS/Include/cmsis_gcc.h ****  * Licensed under the Apache License, Version 2.0 (the License); you may
  13:../../../../../../Drivers/CMSIS/Include/cmsis_gcc.h ****  * not use this file except in compliance with the License.
ARM GAS  C:\Users\EBANO_~1\AppData\Local\Temp\ccfjbou7.s 			page 4


  14:../../../../../../Drivers/CMSIS/Include/cmsis_gcc.h ****  * You may obtain a copy of the License at
  15:../../../../../../Drivers/CMSIS/Include/cmsis_gcc.h ****  *
  16:../../../../../../Drivers/CMSIS/Include/cmsis_gcc.h ****  * www.apache.org/licenses/LICENSE-2.0
  17:../../../../../../Drivers/CMSIS/Include/cmsis_gcc.h ****  *
  18:../../../../../../Drivers/CMSIS/Include/cmsis_gcc.h ****  * Unless required by applicable law or agreed to in writing, software
  19:../../../../../../Drivers/CMSIS/Include/cmsis_gcc.h ****  * distributed under the License is distributed on an AS IS BASIS, WITHOUT
  20:../../../../../../Drivers/CMSIS/Include/cmsis_gcc.h ****  * WARRANTIES OR CONDITIONS OF ANY KIND, either express or implied.
  21:../../../../../../Drivers/CMSIS/Include/cmsis_gcc.h ****  * See the License for the specific language governing permissions and
  22:../../../../../../Drivers/CMSIS/Include/cmsis_gcc.h ****  * limitations under the License.
  23:../../../../../../Drivers/CMSIS/Include/cmsis_gcc.h ****  */
  24:../../../../../../Drivers/CMSIS/Include/cmsis_gcc.h **** 
  25:../../../../../../Drivers/CMSIS/Include/cmsis_gcc.h **** #ifndef __CMSIS_GCC_H
  26:../../../../../../Drivers/CMSIS/Include/cmsis_gcc.h **** #define __CMSIS_GCC_H
  27:../../../../../../Drivers/CMSIS/Include/cmsis_gcc.h **** 
  28:../../../../../../Drivers/CMSIS/Include/cmsis_gcc.h **** /* ignore some GCC warnings */
  29:../../../../../../Drivers/CMSIS/Include/cmsis_gcc.h **** #pragma GCC diagnostic push
  30:../../../../../../Drivers/CMSIS/Include/cmsis_gcc.h **** #pragma GCC diagnostic ignored "-Wsign-conversion"
  31:../../../../../../Drivers/CMSIS/Include/cmsis_gcc.h **** #pragma GCC diagnostic ignored "-Wconversion"
  32:../../../../../../Drivers/CMSIS/Include/cmsis_gcc.h **** #pragma GCC diagnostic ignored "-Wunused-parameter"
  33:../../../../../../Drivers/CMSIS/Include/cmsis_gcc.h **** 
  34:../../../../../../Drivers/CMSIS/Include/cmsis_gcc.h **** /* CMSIS compiler specific defines */
  35:../../../../../../Drivers/CMSIS/Include/cmsis_gcc.h **** #ifndef   __ASM
  36:../../../../../../Drivers/CMSIS/Include/cmsis_gcc.h ****   #define __ASM                     __asm
  37:../../../../../../Drivers/CMSIS/Include/cmsis_gcc.h **** #endif
  38:../../../../../../Drivers/CMSIS/Include/cmsis_gcc.h **** #ifndef   __INLINE
  39:../../../../../../Drivers/CMSIS/Include/cmsis_gcc.h ****   #define __INLINE                  inline
  40:../../../../../../Drivers/CMSIS/Include/cmsis_gcc.h **** #endif
  41:../../../../../../Drivers/CMSIS/Include/cmsis_gcc.h **** #ifndef   __STATIC_INLINE
  42:../../../../../../Drivers/CMSIS/Include/cmsis_gcc.h ****   #define __STATIC_INLINE           static inline
  43:../../../../../../Drivers/CMSIS/Include/cmsis_gcc.h **** #endif
  44:../../../../../../Drivers/CMSIS/Include/cmsis_gcc.h **** #ifndef   __NO_RETURN
  45:../../../../../../Drivers/CMSIS/Include/cmsis_gcc.h ****   #define __NO_RETURN               __attribute__((noreturn))
  46:../../../../../../Drivers/CMSIS/Include/cmsis_gcc.h **** #endif
  47:../../../../../../Drivers/CMSIS/Include/cmsis_gcc.h **** #ifndef   __USED
  48:../../../../../../Drivers/CMSIS/Include/cmsis_gcc.h ****   #define __USED                    __attribute__((used))
  49:../../../../../../Drivers/CMSIS/Include/cmsis_gcc.h **** #endif
  50:../../../../../../Drivers/CMSIS/Include/cmsis_gcc.h **** #ifndef   __WEAK
  51:../../../../../../Drivers/CMSIS/Include/cmsis_gcc.h ****   #define __WEAK                    __attribute__((weak))
  52:../../../../../../Drivers/CMSIS/Include/cmsis_gcc.h **** #endif
  53:../../../../../../Drivers/CMSIS/Include/cmsis_gcc.h **** #ifndef   __UNALIGNED_UINT32
  54:../../../../../../Drivers/CMSIS/Include/cmsis_gcc.h **** #pragma GCC diagnostic push
  55:../../../../../../Drivers/CMSIS/Include/cmsis_gcc.h **** #pragma GCC diagnostic ignored "-Wpacked"
  56:../../../../../../Drivers/CMSIS/Include/cmsis_gcc.h **** #pragma GCC diagnostic ignored "-Wattributes"
  57:../../../../../../Drivers/CMSIS/Include/cmsis_gcc.h ****   struct __attribute__((packed)) T_UINT32 { uint32_t v; };
  58:../../../../../../Drivers/CMSIS/Include/cmsis_gcc.h **** #pragma GCC diagnostic pop
  59:../../../../../../Drivers/CMSIS/Include/cmsis_gcc.h ****   #define __UNALIGNED_UINT32(x)     (((struct T_UINT32 *)(x))->v)
  60:../../../../../../Drivers/CMSIS/Include/cmsis_gcc.h **** #endif
  61:../../../../../../Drivers/CMSIS/Include/cmsis_gcc.h **** #ifndef   __ALIGNED
  62:../../../../../../Drivers/CMSIS/Include/cmsis_gcc.h ****   #define __ALIGNED(x)              __attribute__((aligned(x)))
  63:../../../../../../Drivers/CMSIS/Include/cmsis_gcc.h **** #endif
  64:../../../../../../Drivers/CMSIS/Include/cmsis_gcc.h **** #ifndef   __PACKED
  65:../../../../../../Drivers/CMSIS/Include/cmsis_gcc.h ****   #define __PACKED                  __attribute__((packed, aligned(1)))
  66:../../../../../../Drivers/CMSIS/Include/cmsis_gcc.h **** #endif
  67:../../../../../../Drivers/CMSIS/Include/cmsis_gcc.h **** #ifndef   __PACKED_STRUCT
  68:../../../../../../Drivers/CMSIS/Include/cmsis_gcc.h ****   #define __PACKED_STRUCT           struct __attribute__((packed, aligned(1)))
  69:../../../../../../Drivers/CMSIS/Include/cmsis_gcc.h **** #endif
  70:../../../../../../Drivers/CMSIS/Include/cmsis_gcc.h **** 
ARM GAS  C:\Users\EBANO_~1\AppData\Local\Temp\ccfjbou7.s 			page 5


  71:../../../../../../Drivers/CMSIS/Include/cmsis_gcc.h **** 
  72:../../../../../../Drivers/CMSIS/Include/cmsis_gcc.h **** /* ###########################  Core Function Access  ########################### */
  73:../../../../../../Drivers/CMSIS/Include/cmsis_gcc.h **** /** \ingroup  CMSIS_Core_FunctionInterface
  74:../../../../../../Drivers/CMSIS/Include/cmsis_gcc.h ****     \defgroup CMSIS_Core_RegAccFunctions CMSIS Core Register Access Functions
  75:../../../../../../Drivers/CMSIS/Include/cmsis_gcc.h ****   @{
  76:../../../../../../Drivers/CMSIS/Include/cmsis_gcc.h ****  */
  77:../../../../../../Drivers/CMSIS/Include/cmsis_gcc.h **** 
  78:../../../../../../Drivers/CMSIS/Include/cmsis_gcc.h **** /**
  79:../../../../../../Drivers/CMSIS/Include/cmsis_gcc.h ****   \brief   Enable IRQ Interrupts
  80:../../../../../../Drivers/CMSIS/Include/cmsis_gcc.h ****   \details Enables IRQ interrupts by clearing the I-bit in the CPSR.
  81:../../../../../../Drivers/CMSIS/Include/cmsis_gcc.h ****            Can only be executed in Privileged modes.
  82:../../../../../../Drivers/CMSIS/Include/cmsis_gcc.h ****  */
  83:../../../../../../Drivers/CMSIS/Include/cmsis_gcc.h **** __attribute__((always_inline)) __STATIC_INLINE void __enable_irq(void)
  84:../../../../../../Drivers/CMSIS/Include/cmsis_gcc.h **** {
  85:../../../../../../Drivers/CMSIS/Include/cmsis_gcc.h ****   __ASM volatile ("cpsie i" : : : "memory");
  86:../../../../../../Drivers/CMSIS/Include/cmsis_gcc.h **** }
  87:../../../../../../Drivers/CMSIS/Include/cmsis_gcc.h **** 
  88:../../../../../../Drivers/CMSIS/Include/cmsis_gcc.h **** 
  89:../../../../../../Drivers/CMSIS/Include/cmsis_gcc.h **** /**
  90:../../../../../../Drivers/CMSIS/Include/cmsis_gcc.h ****   \brief   Disable IRQ Interrupts
  91:../../../../../../Drivers/CMSIS/Include/cmsis_gcc.h ****   \details Disables IRQ interrupts by setting the I-bit in the CPSR.
  92:../../../../../../Drivers/CMSIS/Include/cmsis_gcc.h ****            Can only be executed in Privileged modes.
  93:../../../../../../Drivers/CMSIS/Include/cmsis_gcc.h ****  */
  94:../../../../../../Drivers/CMSIS/Include/cmsis_gcc.h **** __attribute__((always_inline)) __STATIC_INLINE void __disable_irq(void)
  95:../../../../../../Drivers/CMSIS/Include/cmsis_gcc.h **** {
  96:../../../../../../Drivers/CMSIS/Include/cmsis_gcc.h ****   __ASM volatile ("cpsid i" : : : "memory");
  97:../../../../../../Drivers/CMSIS/Include/cmsis_gcc.h **** }
  98:../../../../../../Drivers/CMSIS/Include/cmsis_gcc.h **** 
  99:../../../../../../Drivers/CMSIS/Include/cmsis_gcc.h **** 
 100:../../../../../../Drivers/CMSIS/Include/cmsis_gcc.h **** /**
 101:../../../../../../Drivers/CMSIS/Include/cmsis_gcc.h ****   \brief   Get Control Register
 102:../../../../../../Drivers/CMSIS/Include/cmsis_gcc.h ****   \details Returns the content of the Control Register.
 103:../../../../../../Drivers/CMSIS/Include/cmsis_gcc.h ****   \return               Control Register value
 104:../../../../../../Drivers/CMSIS/Include/cmsis_gcc.h ****  */
 105:../../../../../../Drivers/CMSIS/Include/cmsis_gcc.h **** __attribute__((always_inline)) __STATIC_INLINE uint32_t __get_CONTROL(void)
 106:../../../../../../Drivers/CMSIS/Include/cmsis_gcc.h **** {
 107:../../../../../../Drivers/CMSIS/Include/cmsis_gcc.h ****   uint32_t result;
 108:../../../../../../Drivers/CMSIS/Include/cmsis_gcc.h **** 
 109:../../../../../../Drivers/CMSIS/Include/cmsis_gcc.h ****   __ASM volatile ("MRS %0, control" : "=r" (result) );
 110:../../../../../../Drivers/CMSIS/Include/cmsis_gcc.h ****   return(result);
 111:../../../../../../Drivers/CMSIS/Include/cmsis_gcc.h **** }
 112:../../../../../../Drivers/CMSIS/Include/cmsis_gcc.h **** 
 113:../../../../../../Drivers/CMSIS/Include/cmsis_gcc.h **** 
 114:../../../../../../Drivers/CMSIS/Include/cmsis_gcc.h **** #if (defined (__ARM_FEATURE_CMSE ) && (__ARM_FEATURE_CMSE == 3))
 115:../../../../../../Drivers/CMSIS/Include/cmsis_gcc.h **** /**
 116:../../../../../../Drivers/CMSIS/Include/cmsis_gcc.h ****   \brief   Get Control Register (non-secure)
 117:../../../../../../Drivers/CMSIS/Include/cmsis_gcc.h ****   \details Returns the content of the non-secure Control Register when in secure mode.
 118:../../../../../../Drivers/CMSIS/Include/cmsis_gcc.h ****   \return               non-secure Control Register value
 119:../../../../../../Drivers/CMSIS/Include/cmsis_gcc.h ****  */
 120:../../../../../../Drivers/CMSIS/Include/cmsis_gcc.h **** __attribute__((always_inline)) __STATIC_INLINE uint32_t __TZ_get_CONTROL_NS(void)
 121:../../../../../../Drivers/CMSIS/Include/cmsis_gcc.h **** {
 122:../../../../../../Drivers/CMSIS/Include/cmsis_gcc.h ****   uint32_t result;
 123:../../../../../../Drivers/CMSIS/Include/cmsis_gcc.h **** 
 124:../../../../../../Drivers/CMSIS/Include/cmsis_gcc.h ****   __ASM volatile ("MRS %0, control_ns" : "=r" (result) );
 125:../../../../../../Drivers/CMSIS/Include/cmsis_gcc.h ****   return(result);
 126:../../../../../../Drivers/CMSIS/Include/cmsis_gcc.h **** }
 127:../../../../../../Drivers/CMSIS/Include/cmsis_gcc.h **** #endif
ARM GAS  C:\Users\EBANO_~1\AppData\Local\Temp\ccfjbou7.s 			page 6


 128:../../../../../../Drivers/CMSIS/Include/cmsis_gcc.h **** 
 129:../../../../../../Drivers/CMSIS/Include/cmsis_gcc.h **** 
 130:../../../../../../Drivers/CMSIS/Include/cmsis_gcc.h **** /**
 131:../../../../../../Drivers/CMSIS/Include/cmsis_gcc.h ****   \brief   Set Control Register
 132:../../../../../../Drivers/CMSIS/Include/cmsis_gcc.h ****   \details Writes the given value to the Control Register.
 133:../../../../../../Drivers/CMSIS/Include/cmsis_gcc.h ****   \param [in]    control  Control Register value to set
 134:../../../../../../Drivers/CMSIS/Include/cmsis_gcc.h ****  */
 135:../../../../../../Drivers/CMSIS/Include/cmsis_gcc.h **** __attribute__((always_inline)) __STATIC_INLINE void __set_CONTROL(uint32_t control)
 136:../../../../../../Drivers/CMSIS/Include/cmsis_gcc.h **** {
 137:../../../../../../Drivers/CMSIS/Include/cmsis_gcc.h ****   __ASM volatile ("MSR control, %0" : : "r" (control) : "memory");
 138:../../../../../../Drivers/CMSIS/Include/cmsis_gcc.h **** }
 139:../../../../../../Drivers/CMSIS/Include/cmsis_gcc.h **** 
 140:../../../../../../Drivers/CMSIS/Include/cmsis_gcc.h **** 
 141:../../../../../../Drivers/CMSIS/Include/cmsis_gcc.h **** #if (defined (__ARM_FEATURE_CMSE ) && (__ARM_FEATURE_CMSE == 3))
 142:../../../../../../Drivers/CMSIS/Include/cmsis_gcc.h **** /**
 143:../../../../../../Drivers/CMSIS/Include/cmsis_gcc.h ****   \brief   Set Control Register (non-secure)
 144:../../../../../../Drivers/CMSIS/Include/cmsis_gcc.h ****   \details Writes the given value to the non-secure Control Register when in secure state.
 145:../../../../../../Drivers/CMSIS/Include/cmsis_gcc.h ****   \param [in]    control  Control Register value to set
 146:../../../../../../Drivers/CMSIS/Include/cmsis_gcc.h ****  */
 147:../../../../../../Drivers/CMSIS/Include/cmsis_gcc.h **** __attribute__((always_inline)) __STATIC_INLINE void __TZ_set_CONTROL_NS(uint32_t control)
 148:../../../../../../Drivers/CMSIS/Include/cmsis_gcc.h **** {
 149:../../../../../../Drivers/CMSIS/Include/cmsis_gcc.h ****   __ASM volatile ("MSR control_ns, %0" : : "r" (control) : "memory");
 150:../../../../../../Drivers/CMSIS/Include/cmsis_gcc.h **** }
 151:../../../../../../Drivers/CMSIS/Include/cmsis_gcc.h **** #endif
 152:../../../../../../Drivers/CMSIS/Include/cmsis_gcc.h **** 
 153:../../../../../../Drivers/CMSIS/Include/cmsis_gcc.h **** 
 154:../../../../../../Drivers/CMSIS/Include/cmsis_gcc.h **** /**
 155:../../../../../../Drivers/CMSIS/Include/cmsis_gcc.h ****   \brief   Get IPSR Register
 156:../../../../../../Drivers/CMSIS/Include/cmsis_gcc.h ****   \details Returns the content of the IPSR Register.
 157:../../../../../../Drivers/CMSIS/Include/cmsis_gcc.h ****   \return               IPSR Register value
 158:../../../../../../Drivers/CMSIS/Include/cmsis_gcc.h ****  */
 159:../../../../../../Drivers/CMSIS/Include/cmsis_gcc.h **** __attribute__((always_inline)) __STATIC_INLINE uint32_t __get_IPSR(void)
 160:../../../../../../Drivers/CMSIS/Include/cmsis_gcc.h **** {
 161:../../../../../../Drivers/CMSIS/Include/cmsis_gcc.h ****   uint32_t result;
 162:../../../../../../Drivers/CMSIS/Include/cmsis_gcc.h **** 
 163:../../../../../../Drivers/CMSIS/Include/cmsis_gcc.h ****   __ASM volatile ("MRS %0, ipsr" : "=r" (result) );
 164:../../../../../../Drivers/CMSIS/Include/cmsis_gcc.h ****   return(result);
 165:../../../../../../Drivers/CMSIS/Include/cmsis_gcc.h **** }
 166:../../../../../../Drivers/CMSIS/Include/cmsis_gcc.h **** 
 167:../../../../../../Drivers/CMSIS/Include/cmsis_gcc.h **** 
 168:../../../../../../Drivers/CMSIS/Include/cmsis_gcc.h **** /**
 169:../../../../../../Drivers/CMSIS/Include/cmsis_gcc.h ****   \brief   Get APSR Register
 170:../../../../../../Drivers/CMSIS/Include/cmsis_gcc.h ****   \details Returns the content of the APSR Register.
 171:../../../../../../Drivers/CMSIS/Include/cmsis_gcc.h ****   \return               APSR Register value
 172:../../../../../../Drivers/CMSIS/Include/cmsis_gcc.h ****  */
 173:../../../../../../Drivers/CMSIS/Include/cmsis_gcc.h **** __attribute__((always_inline)) __STATIC_INLINE uint32_t __get_APSR(void)
 174:../../../../../../Drivers/CMSIS/Include/cmsis_gcc.h **** {
 175:../../../../../../Drivers/CMSIS/Include/cmsis_gcc.h ****   uint32_t result;
 176:../../../../../../Drivers/CMSIS/Include/cmsis_gcc.h **** 
 177:../../../../../../Drivers/CMSIS/Include/cmsis_gcc.h ****   __ASM volatile ("MRS %0, apsr" : "=r" (result) );
 178:../../../../../../Drivers/CMSIS/Include/cmsis_gcc.h ****   return(result);
 179:../../../../../../Drivers/CMSIS/Include/cmsis_gcc.h **** }
 180:../../../../../../Drivers/CMSIS/Include/cmsis_gcc.h **** 
 181:../../../../../../Drivers/CMSIS/Include/cmsis_gcc.h **** 
 182:../../../../../../Drivers/CMSIS/Include/cmsis_gcc.h **** /**
 183:../../../../../../Drivers/CMSIS/Include/cmsis_gcc.h ****   \brief   Get xPSR Register
 184:../../../../../../Drivers/CMSIS/Include/cmsis_gcc.h ****   \details Returns the content of the xPSR Register.
ARM GAS  C:\Users\EBANO_~1\AppData\Local\Temp\ccfjbou7.s 			page 7


 185:../../../../../../Drivers/CMSIS/Include/cmsis_gcc.h ****   \return               xPSR Register value
 186:../../../../../../Drivers/CMSIS/Include/cmsis_gcc.h ****  */
 187:../../../../../../Drivers/CMSIS/Include/cmsis_gcc.h **** __attribute__((always_inline)) __STATIC_INLINE uint32_t __get_xPSR(void)
 188:../../../../../../Drivers/CMSIS/Include/cmsis_gcc.h **** {
 189:../../../../../../Drivers/CMSIS/Include/cmsis_gcc.h ****   uint32_t result;
 190:../../../../../../Drivers/CMSIS/Include/cmsis_gcc.h **** 
 191:../../../../../../Drivers/CMSIS/Include/cmsis_gcc.h ****   __ASM volatile ("MRS %0, xpsr" : "=r" (result) );
 192:../../../../../../Drivers/CMSIS/Include/cmsis_gcc.h ****   return(result);
 193:../../../../../../Drivers/CMSIS/Include/cmsis_gcc.h **** }
 194:../../../../../../Drivers/CMSIS/Include/cmsis_gcc.h **** 
 195:../../../../../../Drivers/CMSIS/Include/cmsis_gcc.h **** 
 196:../../../../../../Drivers/CMSIS/Include/cmsis_gcc.h **** /**
 197:../../../../../../Drivers/CMSIS/Include/cmsis_gcc.h ****   \brief   Get Process Stack Pointer
 198:../../../../../../Drivers/CMSIS/Include/cmsis_gcc.h ****   \details Returns the current value of the Process Stack Pointer (PSP).
 199:../../../../../../Drivers/CMSIS/Include/cmsis_gcc.h ****   \return               PSP Register value
 200:../../../../../../Drivers/CMSIS/Include/cmsis_gcc.h ****  */
 201:../../../../../../Drivers/CMSIS/Include/cmsis_gcc.h **** __attribute__((always_inline)) __STATIC_INLINE uint32_t __get_PSP(void)
 202:../../../../../../Drivers/CMSIS/Include/cmsis_gcc.h **** {
 203:../../../../../../Drivers/CMSIS/Include/cmsis_gcc.h ****   register uint32_t result;
 204:../../../../../../Drivers/CMSIS/Include/cmsis_gcc.h **** 
 205:../../../../../../Drivers/CMSIS/Include/cmsis_gcc.h ****   __ASM volatile ("MRS %0, psp"  : "=r" (result) );
 206:../../../../../../Drivers/CMSIS/Include/cmsis_gcc.h ****   return(result);
 207:../../../../../../Drivers/CMSIS/Include/cmsis_gcc.h **** }
 208:../../../../../../Drivers/CMSIS/Include/cmsis_gcc.h **** 
 209:../../../../../../Drivers/CMSIS/Include/cmsis_gcc.h **** 
 210:../../../../../../Drivers/CMSIS/Include/cmsis_gcc.h **** #if (defined (__ARM_FEATURE_CMSE ) && (__ARM_FEATURE_CMSE == 3))
 211:../../../../../../Drivers/CMSIS/Include/cmsis_gcc.h **** /**
 212:../../../../../../Drivers/CMSIS/Include/cmsis_gcc.h ****   \brief   Get Process Stack Pointer (non-secure)
 213:../../../../../../Drivers/CMSIS/Include/cmsis_gcc.h ****   \details Returns the current value of the non-secure Process Stack Pointer (PSP) when in secure s
 214:../../../../../../Drivers/CMSIS/Include/cmsis_gcc.h ****   \return               PSP Register value
 215:../../../../../../Drivers/CMSIS/Include/cmsis_gcc.h ****  */
 216:../../../../../../Drivers/CMSIS/Include/cmsis_gcc.h **** __attribute__((always_inline)) __STATIC_INLINE uint32_t __TZ_get_PSP_NS(void)
 217:../../../../../../Drivers/CMSIS/Include/cmsis_gcc.h **** {
 218:../../../../../../Drivers/CMSIS/Include/cmsis_gcc.h ****   register uint32_t result;
 219:../../../../../../Drivers/CMSIS/Include/cmsis_gcc.h **** 
 220:../../../../../../Drivers/CMSIS/Include/cmsis_gcc.h ****   __ASM volatile ("MRS %0, psp_ns"  : "=r" (result) );
 221:../../../../../../Drivers/CMSIS/Include/cmsis_gcc.h ****   return(result);
 222:../../../../../../Drivers/CMSIS/Include/cmsis_gcc.h **** }
 223:../../../../../../Drivers/CMSIS/Include/cmsis_gcc.h **** #endif
 224:../../../../../../Drivers/CMSIS/Include/cmsis_gcc.h **** 
 225:../../../../../../Drivers/CMSIS/Include/cmsis_gcc.h **** 
 226:../../../../../../Drivers/CMSIS/Include/cmsis_gcc.h **** /**
 227:../../../../../../Drivers/CMSIS/Include/cmsis_gcc.h ****   \brief   Set Process Stack Pointer
 228:../../../../../../Drivers/CMSIS/Include/cmsis_gcc.h ****   \details Assigns the given value to the Process Stack Pointer (PSP).
 229:../../../../../../Drivers/CMSIS/Include/cmsis_gcc.h ****   \param [in]    topOfProcStack  Process Stack Pointer value to set
 230:../../../../../../Drivers/CMSIS/Include/cmsis_gcc.h ****  */
 231:../../../../../../Drivers/CMSIS/Include/cmsis_gcc.h **** __attribute__((always_inline)) __STATIC_INLINE void __set_PSP(uint32_t topOfProcStack)
 232:../../../../../../Drivers/CMSIS/Include/cmsis_gcc.h **** {
 233:../../../../../../Drivers/CMSIS/Include/cmsis_gcc.h ****   __ASM volatile ("MSR psp, %0" : : "r" (topOfProcStack) : );
 234:../../../../../../Drivers/CMSIS/Include/cmsis_gcc.h **** }
 235:../../../../../../Drivers/CMSIS/Include/cmsis_gcc.h **** 
 236:../../../../../../Drivers/CMSIS/Include/cmsis_gcc.h **** 
 237:../../../../../../Drivers/CMSIS/Include/cmsis_gcc.h **** #if (defined (__ARM_FEATURE_CMSE ) && (__ARM_FEATURE_CMSE == 3))
 238:../../../../../../Drivers/CMSIS/Include/cmsis_gcc.h **** /**
 239:../../../../../../Drivers/CMSIS/Include/cmsis_gcc.h ****   \brief   Set Process Stack Pointer (non-secure)
 240:../../../../../../Drivers/CMSIS/Include/cmsis_gcc.h ****   \details Assigns the given value to the non-secure Process Stack Pointer (PSP) when in secure sta
 241:../../../../../../Drivers/CMSIS/Include/cmsis_gcc.h ****   \param [in]    topOfProcStack  Process Stack Pointer value to set
ARM GAS  C:\Users\EBANO_~1\AppData\Local\Temp\ccfjbou7.s 			page 8


 242:../../../../../../Drivers/CMSIS/Include/cmsis_gcc.h ****  */
 243:../../../../../../Drivers/CMSIS/Include/cmsis_gcc.h **** __attribute__((always_inline)) __STATIC_INLINE void __TZ_set_PSP_NS(uint32_t topOfProcStack)
 244:../../../../../../Drivers/CMSIS/Include/cmsis_gcc.h **** {
 245:../../../../../../Drivers/CMSIS/Include/cmsis_gcc.h ****   __ASM volatile ("MSR psp_ns, %0" : : "r" (topOfProcStack) : );
 246:../../../../../../Drivers/CMSIS/Include/cmsis_gcc.h **** }
 247:../../../../../../Drivers/CMSIS/Include/cmsis_gcc.h **** #endif
 248:../../../../../../Drivers/CMSIS/Include/cmsis_gcc.h **** 
 249:../../../../../../Drivers/CMSIS/Include/cmsis_gcc.h **** 
 250:../../../../../../Drivers/CMSIS/Include/cmsis_gcc.h **** /**
 251:../../../../../../Drivers/CMSIS/Include/cmsis_gcc.h ****   \brief   Get Main Stack Pointer
 252:../../../../../../Drivers/CMSIS/Include/cmsis_gcc.h ****   \details Returns the current value of the Main Stack Pointer (MSP).
 253:../../../../../../Drivers/CMSIS/Include/cmsis_gcc.h ****   \return               MSP Register value
 254:../../../../../../Drivers/CMSIS/Include/cmsis_gcc.h ****  */
 255:../../../../../../Drivers/CMSIS/Include/cmsis_gcc.h **** __attribute__((always_inline)) __STATIC_INLINE uint32_t __get_MSP(void)
 256:../../../../../../Drivers/CMSIS/Include/cmsis_gcc.h **** {
 257:../../../../../../Drivers/CMSIS/Include/cmsis_gcc.h ****   register uint32_t result;
 258:../../../../../../Drivers/CMSIS/Include/cmsis_gcc.h **** 
 259:../../../../../../Drivers/CMSIS/Include/cmsis_gcc.h ****   __ASM volatile ("MRS %0, msp" : "=r" (result) );
 260:../../../../../../Drivers/CMSIS/Include/cmsis_gcc.h ****   return(result);
 261:../../../../../../Drivers/CMSIS/Include/cmsis_gcc.h **** }
 262:../../../../../../Drivers/CMSIS/Include/cmsis_gcc.h **** 
 263:../../../../../../Drivers/CMSIS/Include/cmsis_gcc.h **** 
 264:../../../../../../Drivers/CMSIS/Include/cmsis_gcc.h **** #if (defined (__ARM_FEATURE_CMSE ) && (__ARM_FEATURE_CMSE == 3))
 265:../../../../../../Drivers/CMSIS/Include/cmsis_gcc.h **** /**
 266:../../../../../../Drivers/CMSIS/Include/cmsis_gcc.h ****   \brief   Get Main Stack Pointer (non-secure)
 267:../../../../../../Drivers/CMSIS/Include/cmsis_gcc.h ****   \details Returns the current value of the non-secure Main Stack Pointer (MSP) when in secure stat
 268:../../../../../../Drivers/CMSIS/Include/cmsis_gcc.h ****   \return               MSP Register value
 269:../../../../../../Drivers/CMSIS/Include/cmsis_gcc.h ****  */
 270:../../../../../../Drivers/CMSIS/Include/cmsis_gcc.h **** __attribute__((always_inline)) __STATIC_INLINE uint32_t __TZ_get_MSP_NS(void)
 271:../../../../../../Drivers/CMSIS/Include/cmsis_gcc.h **** {
 272:../../../../../../Drivers/CMSIS/Include/cmsis_gcc.h ****   register uint32_t result;
 273:../../../../../../Drivers/CMSIS/Include/cmsis_gcc.h **** 
 274:../../../../../../Drivers/CMSIS/Include/cmsis_gcc.h ****   __ASM volatile ("MRS %0, msp_ns" : "=r" (result) );
 275:../../../../../../Drivers/CMSIS/Include/cmsis_gcc.h ****   return(result);
 276:../../../../../../Drivers/CMSIS/Include/cmsis_gcc.h **** }
 277:../../../../../../Drivers/CMSIS/Include/cmsis_gcc.h **** #endif
 278:../../../../../../Drivers/CMSIS/Include/cmsis_gcc.h **** 
 279:../../../../../../Drivers/CMSIS/Include/cmsis_gcc.h **** 
 280:../../../../../../Drivers/CMSIS/Include/cmsis_gcc.h **** /**
 281:../../../../../../Drivers/CMSIS/Include/cmsis_gcc.h ****   \brief   Set Main Stack Pointer
 282:../../../../../../Drivers/CMSIS/Include/cmsis_gcc.h ****   \details Assigns the given value to the Main Stack Pointer (MSP).
 283:../../../../../../Drivers/CMSIS/Include/cmsis_gcc.h ****   \param [in]    topOfMainStack  Main Stack Pointer value to set
 284:../../../../../../Drivers/CMSIS/Include/cmsis_gcc.h ****  */
 285:../../../../../../Drivers/CMSIS/Include/cmsis_gcc.h **** __attribute__((always_inline)) __STATIC_INLINE void __set_MSP(uint32_t topOfMainStack)
 286:../../../../../../Drivers/CMSIS/Include/cmsis_gcc.h **** {
 287:../../../../../../Drivers/CMSIS/Include/cmsis_gcc.h ****   __ASM volatile ("MSR msp, %0" : : "r" (topOfMainStack) : );
 288:../../../../../../Drivers/CMSIS/Include/cmsis_gcc.h **** }
 289:../../../../../../Drivers/CMSIS/Include/cmsis_gcc.h **** 
 290:../../../../../../Drivers/CMSIS/Include/cmsis_gcc.h **** 
 291:../../../../../../Drivers/CMSIS/Include/cmsis_gcc.h **** #if (defined (__ARM_FEATURE_CMSE ) && (__ARM_FEATURE_CMSE == 3))
 292:../../../../../../Drivers/CMSIS/Include/cmsis_gcc.h **** /**
 293:../../../../../../Drivers/CMSIS/Include/cmsis_gcc.h ****   \brief   Set Main Stack Pointer (non-secure)
 294:../../../../../../Drivers/CMSIS/Include/cmsis_gcc.h ****   \details Assigns the given value to the non-secure Main Stack Pointer (MSP) when in secure state.
 295:../../../../../../Drivers/CMSIS/Include/cmsis_gcc.h ****   \param [in]    topOfMainStack  Main Stack Pointer value to set
 296:../../../../../../Drivers/CMSIS/Include/cmsis_gcc.h ****  */
 297:../../../../../../Drivers/CMSIS/Include/cmsis_gcc.h **** __attribute__((always_inline)) __STATIC_INLINE void __TZ_set_MSP_NS(uint32_t topOfMainStack)
 298:../../../../../../Drivers/CMSIS/Include/cmsis_gcc.h **** {
ARM GAS  C:\Users\EBANO_~1\AppData\Local\Temp\ccfjbou7.s 			page 9


 299:../../../../../../Drivers/CMSIS/Include/cmsis_gcc.h ****   __ASM volatile ("MSR msp_ns, %0" : : "r" (topOfMainStack) : );
 300:../../../../../../Drivers/CMSIS/Include/cmsis_gcc.h **** }
 301:../../../../../../Drivers/CMSIS/Include/cmsis_gcc.h **** #endif
 302:../../../../../../Drivers/CMSIS/Include/cmsis_gcc.h **** 
 303:../../../../../../Drivers/CMSIS/Include/cmsis_gcc.h **** 
 304:../../../../../../Drivers/CMSIS/Include/cmsis_gcc.h **** /**
 305:../../../../../../Drivers/CMSIS/Include/cmsis_gcc.h ****   \brief   Get Priority Mask
 306:../../../../../../Drivers/CMSIS/Include/cmsis_gcc.h ****   \details Returns the current state of the priority mask bit from the Priority Mask Register.
 307:../../../../../../Drivers/CMSIS/Include/cmsis_gcc.h ****   \return               Priority Mask value
 308:../../../../../../Drivers/CMSIS/Include/cmsis_gcc.h ****  */
 309:../../../../../../Drivers/CMSIS/Include/cmsis_gcc.h **** __attribute__((always_inline)) __STATIC_INLINE uint32_t __get_PRIMASK(void)
 310:../../../../../../Drivers/CMSIS/Include/cmsis_gcc.h **** {
 311:../../../../../../Drivers/CMSIS/Include/cmsis_gcc.h ****   uint32_t result;
 312:../../../../../../Drivers/CMSIS/Include/cmsis_gcc.h **** 
 313:../../../../../../Drivers/CMSIS/Include/cmsis_gcc.h ****   __ASM volatile ("MRS %0, primask" : "=r" (result) );
  43              		.loc 2 313 0
  44              		.syntax divided
  45              	@ 313 "../../../../../../Drivers/CMSIS/Include/cmsis_gcc.h" 1
  46 0004 EFF31085 		MRS r5, primask
  47              	@ 0 "" 2
  48              		.thumb
  49              		.syntax unified
  50              	.LBE19:
  51              	.LBE18:
  52              	.LBB20:
  53              	.LBB21:
  96:../../../../../../Drivers/CMSIS/Include/cmsis_gcc.h **** }
  54              		.loc 2 96 0
  55              		.syntax divided
  56              	@ 96 "../../../../../../Drivers/CMSIS/Include/cmsis_gcc.h" 1
  57 0008 72B6     		cpsid i
  58              	@ 0 "" 2
  59              		.thumb
  60              		.syntax unified
  61              	.LBE21:
  62              	.LBE20:
 117:../../../../../../Middlewares/Third_Party/LoRaWAN/Utilities/trace.c ****   int status;
 118:../../../../../../Middlewares/Third_Party/LoRaWAN/Utilities/trace.c ****   uint8_t* buffer;
 119:../../../../../../Middlewares/Third_Party/LoRaWAN/Utilities/trace.c ****   uint16_t bufSize;
 120:../../../../../../Middlewares/Third_Party/LoRaWAN/Utilities/trace.c **** 
 121:../../../../../../Middlewares/Third_Party/LoRaWAN/Utilities/trace.c ****   BACKUP_PRIMASK();
 122:../../../../../../Middlewares/Third_Party/LoRaWAN/Utilities/trace.c **** 
 123:../../../../../../Middlewares/Third_Party/LoRaWAN/Utilities/trace.c ****   DISABLE_IRQ(); /**< Disable all interrupts by setting PRIMASK bit on Cortex*/
 124:../../../../../../Middlewares/Third_Party/LoRaWAN/Utilities/trace.c ****   /* Remove element just sent to UART */
 125:../../../../../../Middlewares/Third_Party/LoRaWAN/Utilities/trace.c ****   circular_queue_remove(&MsgTraceQueue);
  63              		.loc 1 125 0
  64 000a 114C     		ldr	r4, .L6
  65 000c 2000     		movs	r0, r4
  66 000e FFF7FEFF 		bl	circular_queue_remove
  67              	.LVL0:
 126:../../../../../../Middlewares/Third_Party/LoRaWAN/Utilities/trace.c ****   //DBG_GPIO_SET(GPIOB, GPIO_PIN_13);
 127:../../../../../../Middlewares/Third_Party/LoRaWAN/Utilities/trace.c ****   //DBG_GPIO_RST(GPIOB, GPIO_PIN_13);
 128:../../../../../../Middlewares/Third_Party/LoRaWAN/Utilities/trace.c ****   /* Sense if new data to be sent */
 129:../../../../../../Middlewares/Third_Party/LoRaWAN/Utilities/trace.c ****   status=circular_queue_sense(&MsgTraceQueue);
  68              		.loc 1 129 0
  69 0012 2000     		movs	r0, r4
  70 0014 FFF7FEFF 		bl	circular_queue_sense
ARM GAS  C:\Users\EBANO_~1\AppData\Local\Temp\ccfjbou7.s 			page 10


  71              	.LVL1:
 130:../../../../../../Middlewares/Third_Party/LoRaWAN/Utilities/trace.c **** 
 131:../../../../../../Middlewares/Third_Party/LoRaWAN/Utilities/trace.c ****   if ( status == 0) 
  72              		.loc 1 131 0
  73 0018 0028     		cmp	r0, #0
  74 001a 0AD0     		beq	.L5
 132:../../../../../../Middlewares/Third_Party/LoRaWAN/Utilities/trace.c ****   {
 133:../../../../../../Middlewares/Third_Party/LoRaWAN/Utilities/trace.c ****     circular_queue_get(&MsgTraceQueue,&buffer,&bufSize);
 134:../../../../../../Middlewares/Third_Party/LoRaWAN/Utilities/trace.c ****     RESTORE_PRIMASK();
 135:../../../../../../Middlewares/Third_Party/LoRaWAN/Utilities/trace.c ****     //DBG_GPIO_SET(GPIOB, GPIO_PIN_14);
 136:../../../../../../Middlewares/Third_Party/LoRaWAN/Utilities/trace.c ****     //DBG_GPIO_RST(GPIOB, GPIO_PIN_14);
 137:../../../../../../Middlewares/Third_Party/LoRaWAN/Utilities/trace.c ****     OutputTrace(buffer, bufSize);
 138:../../../../../../Middlewares/Third_Party/LoRaWAN/Utilities/trace.c ****   }
 139:../../../../../../Middlewares/Third_Party/LoRaWAN/Utilities/trace.c ****   else
 140:../../../../../../Middlewares/Third_Party/LoRaWAN/Utilities/trace.c ****   {
 141:../../../../../../Middlewares/Third_Party/LoRaWAN/Utilities/trace.c ****     //DBG_GPIO_SET(GPIOB, GPIO_PIN_12);
 142:../../../../../../Middlewares/Third_Party/LoRaWAN/Utilities/trace.c **** 
 143:../../../../../../Middlewares/Third_Party/LoRaWAN/Utilities/trace.c ****     LPM_SetStopMode(LPM_UART_TX_Id , LPM_Enable );
  75              		.loc 1 143 0
  76 001c 0021     		movs	r1, #0
  77 001e 2020     		movs	r0, #32
  78              	.LVL2:
  79 0020 FFF7FEFF 		bl	LPM_SetStopMode
  80              	.LVL3:
 144:../../../../../../Middlewares/Third_Party/LoRaWAN/Utilities/trace.c ****     TracePeripheralReady = SET;
  81              		.loc 1 144 0
  82 0024 0122     		movs	r2, #1
  83 0026 0B4B     		ldr	r3, .L6+4
  84 0028 1A70     		strb	r2, [r3]
  85              	.LVL4:
  86              	.LBB22:
  87              	.LBB23:
 314:../../../../../../Drivers/CMSIS/Include/cmsis_gcc.h ****   return(result);
 315:../../../../../../Drivers/CMSIS/Include/cmsis_gcc.h **** }
 316:../../../../../../Drivers/CMSIS/Include/cmsis_gcc.h **** 
 317:../../../../../../Drivers/CMSIS/Include/cmsis_gcc.h **** 
 318:../../../../../../Drivers/CMSIS/Include/cmsis_gcc.h **** #if (defined (__ARM_FEATURE_CMSE ) && (__ARM_FEATURE_CMSE == 3))
 319:../../../../../../Drivers/CMSIS/Include/cmsis_gcc.h **** /**
 320:../../../../../../Drivers/CMSIS/Include/cmsis_gcc.h ****   \brief   Get Priority Mask (non-secure)
 321:../../../../../../Drivers/CMSIS/Include/cmsis_gcc.h ****   \details Returns the current state of the non-secure priority mask bit from the Priority Mask Reg
 322:../../../../../../Drivers/CMSIS/Include/cmsis_gcc.h ****   \return               Priority Mask value
 323:../../../../../../Drivers/CMSIS/Include/cmsis_gcc.h ****  */
 324:../../../../../../Drivers/CMSIS/Include/cmsis_gcc.h **** __attribute__((always_inline)) __STATIC_INLINE uint32_t __TZ_get_PRIMASK_NS(void)
 325:../../../../../../Drivers/CMSIS/Include/cmsis_gcc.h **** {
 326:../../../../../../Drivers/CMSIS/Include/cmsis_gcc.h ****   uint32_t result;
 327:../../../../../../Drivers/CMSIS/Include/cmsis_gcc.h **** 
 328:../../../../../../Drivers/CMSIS/Include/cmsis_gcc.h ****   __ASM volatile ("MRS %0, primask_ns" : "=r" (result) );
 329:../../../../../../Drivers/CMSIS/Include/cmsis_gcc.h ****   return(result);
 330:../../../../../../Drivers/CMSIS/Include/cmsis_gcc.h **** }
 331:../../../../../../Drivers/CMSIS/Include/cmsis_gcc.h **** #endif
 332:../../../../../../Drivers/CMSIS/Include/cmsis_gcc.h **** 
 333:../../../../../../Drivers/CMSIS/Include/cmsis_gcc.h **** 
 334:../../../../../../Drivers/CMSIS/Include/cmsis_gcc.h **** /**
 335:../../../../../../Drivers/CMSIS/Include/cmsis_gcc.h ****   \brief   Set Priority Mask
 336:../../../../../../Drivers/CMSIS/Include/cmsis_gcc.h ****   \details Assigns the given value to the Priority Mask Register.
 337:../../../../../../Drivers/CMSIS/Include/cmsis_gcc.h ****   \param [in]    priMask  Priority Mask
 338:../../../../../../Drivers/CMSIS/Include/cmsis_gcc.h ****  */
ARM GAS  C:\Users\EBANO_~1\AppData\Local\Temp\ccfjbou7.s 			page 11


 339:../../../../../../Drivers/CMSIS/Include/cmsis_gcc.h **** __attribute__((always_inline)) __STATIC_INLINE void __set_PRIMASK(uint32_t priMask)
 340:../../../../../../Drivers/CMSIS/Include/cmsis_gcc.h **** {
 341:../../../../../../Drivers/CMSIS/Include/cmsis_gcc.h ****   __ASM volatile ("MSR primask, %0" : : "r" (priMask) : "memory");
  88              		.loc 2 341 0
  89              		.syntax divided
  90              	@ 341 "../../../../../../Drivers/CMSIS/Include/cmsis_gcc.h" 1
  91 002a 85F31088 		MSR primask, r5
  92              	@ 0 "" 2
  93              	.LVL5:
  94              		.thumb
  95              		.syntax unified
  96              	.L1:
  97              	.LBE23:
  98              	.LBE22:
 145:../../../../../../Middlewares/Third_Party/LoRaWAN/Utilities/trace.c ****     RESTORE_PRIMASK();
 146:../../../../../../Middlewares/Third_Party/LoRaWAN/Utilities/trace.c ****   }
 147:../../../../../../Middlewares/Third_Party/LoRaWAN/Utilities/trace.c **** }
  99              		.loc 1 147 0
 100 002e 02B0     		add	sp, sp, #8
 101              		@ sp needed
 102 0030 70BD     		pop	{r4, r5, r6, pc}
 103              	.LVL6:
 104              	.L5:
 133:../../../../../../Middlewares/Third_Party/LoRaWAN/Utilities/trace.c ****     RESTORE_PRIMASK();
 105              		.loc 1 133 0
 106 0032 6B46     		mov	r3, sp
 107 0034 9E1C     		adds	r6, r3, #2
 108 0036 3200     		movs	r2, r6
 109 0038 01A9     		add	r1, sp, #4
 110 003a 2000     		movs	r0, r4
 111              	.LVL7:
 112 003c FFF7FEFF 		bl	circular_queue_get
 113              	.LVL8:
 114              	.LBB24:
 115              	.LBB25:
 116              		.loc 2 341 0
 117              		.syntax divided
 118              	@ 341 "../../../../../../Drivers/CMSIS/Include/cmsis_gcc.h" 1
 119 0040 85F31088 		MSR primask, r5
 120              	@ 0 "" 2
 121              	.LVL9:
 122              		.thumb
 123              		.syntax unified
 124              	.LBE25:
 125              	.LBE24:
 137:../../../../../../Middlewares/Third_Party/LoRaWAN/Utilities/trace.c ****   }
 126              		.loc 1 137 0
 127 0044 3188     		ldrh	r1, [r6]
 128 0046 0198     		ldr	r0, [sp, #4]
 129 0048 FFF7FEFF 		bl	vcom_Trace
 130              	.LVL10:
 131 004c EFE7     		b	.L1
 132              	.L7:
 133 004e C046     		.align	2
 134              	.L6:
 135 0050 00000000 		.word	.LANCHOR0
 136 0054 00000000 		.word	.LANCHOR1
ARM GAS  C:\Users\EBANO_~1\AppData\Local\Temp\ccfjbou7.s 			page 12


 137              		.cfi_endproc
 138              	.LFE42:
 139              		.size	Trace_TxCpltCallback, .-Trace_TxCpltCallback
 140              		.section	.text.TraceInit,"ax",%progbits
 141              		.align	1
 142              		.p2align 2,,3
 143              		.global	TraceInit
 144              		.syntax unified
 145              		.code	16
 146              		.thumb_func
 147              		.fpu softvfp
 148              		.type	TraceInit, %function
 149              	TraceInit:
 150              	.LFB39:
  54:../../../../../../Middlewares/Third_Party/LoRaWAN/Utilities/trace.c ****   OutputInit(Trace_TxCpltCallback);
 151              		.loc 1 54 0
 152              		.cfi_startproc
 153              		@ args = 0, pretend = 0, frame = 0
 154              		@ frame_needed = 0, uses_anonymous_args = 0
 155 0000 10B5     		push	{r4, lr}
 156              	.LCFI2:
 157              		.cfi_def_cfa_offset 8
 158              		.cfi_offset 4, -8
 159              		.cfi_offset 14, -4
  55:../../../../../../Middlewares/Third_Party/LoRaWAN/Utilities/trace.c **** 
 160              		.loc 1 55 0
 161 0002 0548     		ldr	r0, .L9
 162 0004 FFF7FEFF 		bl	vcom_Init
 163              	.LVL11:
  57:../../../../../../Middlewares/Third_Party/LoRaWAN/Utilities/trace.c **** 
 164              		.loc 1 57 0
 165 0008 8022     		movs	r2, #128
 166 000a 0449     		ldr	r1, .L9+4
 167 000c 5200     		lsls	r2, r2, #1
 168 000e 0448     		ldr	r0, .L9+8
 169 0010 FFF7FEFF 		bl	circular_queue_init
 170              	.LVL12:
  60:../../../../../../Middlewares/Third_Party/LoRaWAN/Utilities/trace.c **** 
 171              		.loc 1 60 0
 172              		@ sp needed
 173 0014 10BD     		pop	{r4, pc}
 174              	.L10:
 175 0016 C046     		.align	2
 176              	.L9:
 177 0018 00000000 		.word	Trace_TxCpltCallback
 178 001c 10000000 		.word	MsgTraceQueueBuff
 179 0020 00000000 		.word	.LANCHOR0
 180              		.cfi_endproc
 181              	.LFE39:
 182              		.size	TraceInit, .-TraceInit
 183              		.section	.text.TraceSend,"ax",%progbits
 184              		.align	1
 185              		.p2align 2,,3
 186              		.global	TraceSend
 187              		.syntax unified
 188              		.code	16
 189              		.thumb_func
ARM GAS  C:\Users\EBANO_~1\AppData\Local\Temp\ccfjbou7.s 			page 13


 190              		.fpu softvfp
 191              		.type	TraceSend, %function
 192              	TraceSend:
 193              	.LFB40:
  63:../../../../../../Middlewares/Third_Party/LoRaWAN/Utilities/trace.c ****   char buf[TEMPBUFSIZE];
 194              		.loc 1 63 0
 195              		.cfi_startproc
 196              		@ args = 4, pretend = 16, frame = 272
 197              		@ frame_needed = 0, uses_anonymous_args = 1
 198              	.LVL13:
 199 0000 0FB4     		push	{r0, r1, r2, r3}
 200              	.LCFI3:
 201              		.cfi_def_cfa_offset 16
 202 0002 F0B5     		push	{r4, r5, r6, r7, lr}
 203              	.LCFI4:
 204              		.cfi_def_cfa_offset 36
 205              		.cfi_offset 4, -36
 206              		.cfi_offset 5, -32
 207              		.cfi_offset 6, -28
 208              		.cfi_offset 7, -24
 209              		.cfi_offset 14, -20
 210 0004 C646     		mov	lr, r8
  68:../../../../../../Middlewares/Third_Party/LoRaWAN/Utilities/trace.c ****   va_end(vaArgs);
 211              		.loc 1 68 0
 212 0006 8021     		movs	r1, #128
  63:../../../../../../Middlewares/Third_Party/LoRaWAN/Utilities/trace.c ****   char buf[TEMPBUFSIZE];
 213              		.loc 1 63 0
 214 0008 00B5     		push	{lr}
 215              	.LCFI5:
 216              		.cfi_def_cfa_offset 40
 217              		.cfi_offset 8, -40
 218 000a C4B0     		sub	sp, sp, #272
 219              	.LCFI6:
 220              		.cfi_def_cfa_offset 312
  63:../../../../../../Middlewares/Third_Party/LoRaWAN/Utilities/trace.c ****   char buf[TEMPBUFSIZE];
 221              		.loc 1 63 0
 222 000c 4AAB     		add	r3, sp, #296
 223 000e 04CB     		ldmia	r3!, {r2}
  68:../../../../../../Middlewares/Third_Party/LoRaWAN/Utilities/trace.c ****   va_end(vaArgs);
 224              		.loc 1 68 0
 225 0010 4900     		lsls	r1, r1, #1
 226 0012 04A8     		add	r0, sp, #16
  67:../../../../../../Middlewares/Third_Party/LoRaWAN/Utilities/trace.c ****   uint16_t bufSize=vsnprintf(buf,TEMPBUFSIZE,strFormat, vaArgs);
 227              		.loc 1 67 0
 228 0014 0293     		str	r3, [sp, #8]
  68:../../../../../../Middlewares/Third_Party/LoRaWAN/Utilities/trace.c ****   va_end(vaArgs);
 229              		.loc 1 68 0
 230 0016 FFF7FEFF 		bl	vsnprintf
 231              	.LVL14:
 232 001a 6B46     		mov	r3, sp
 233 001c 9C1D     		adds	r4, r3, #6
 234 001e 2080     		strh	r0, [r4]
 235              	.LVL15:
 236              	.LBB26:
 237              	.LBB27:
 313:../../../../../../Drivers/CMSIS/Include/cmsis_gcc.h ****   return(result);
 238              		.loc 2 313 0
ARM GAS  C:\Users\EBANO_~1\AppData\Local\Temp\ccfjbou7.s 			page 14


 239              		.syntax divided
 240              	@ 313 "../../../../../../Drivers/CMSIS/Include/cmsis_gcc.h" 1
 241 0020 EFF31087 		MRS r7, primask
 242              	@ 0 "" 2
 243              		.thumb
 244              		.syntax unified
 245              	.LBE27:
 246              	.LBE26:
 247              	.LBB28:
 248              	.LBB29:
  96:../../../../../../Drivers/CMSIS/Include/cmsis_gcc.h **** }
 249              		.loc 2 96 0
 250              		.syntax divided
 251              	@ 96 "../../../../../../Drivers/CMSIS/Include/cmsis_gcc.h" 1
 252 0024 72B6     		cpsid i
 253              	@ 0 "" 2
 254              		.thumb
 255              		.syntax unified
 256              	.LBE29:
 257              	.LBE28:
  77:../../../../../../Middlewares/Third_Party/LoRaWAN/Utilities/trace.c ****   
 258              		.loc 1 77 0
 259 0026 144E     		ldr	r6, .L15
 260 0028 2288     		ldrh	r2, [r4]
 261 002a 04A9     		add	r1, sp, #16
 262 002c 3000     		movs	r0, r6
 263 002e FFF7FEFF 		bl	circular_queue_add
 264              	.LVL16:
 265 0032 051E     		subs	r5, r0, #0
 266              	.LVL17:
  79:../../../../../../Middlewares/Third_Party/LoRaWAN/Utilities/trace.c ****   {
 267              		.loc 1 79 0
 268 0034 04D1     		bne	.L12
  79:../../../../../../Middlewares/Third_Party/LoRaWAN/Utilities/trace.c ****   {
 269              		.loc 1 79 0 is_stmt 0 discriminator 1
 270 0036 114B     		ldr	r3, .L15+4
 271 0038 9846     		mov	r8, r3
 272 003a 1B78     		ldrb	r3, [r3]
 273 003c 012B     		cmp	r3, #1
 274 003e 09D0     		beq	.L14
 275              	.L12:
 276              	.LVL18:
 277              	.LBB30:
 278              	.LBB31:
 279              		.loc 2 341 0 is_stmt 1
 280              		.syntax divided
 281              	@ 341 "../../../../../../Drivers/CMSIS/Include/cmsis_gcc.h" 1
 282 0040 87F31088 		MSR primask, r7
 283              	@ 0 "" 2
 284              	.LVL19:
 285              		.thumb
 286              		.syntax unified
 287              	.L11:
 288              	.LBE31:
 289              	.LBE30:
  95:../../../../../../Middlewares/Third_Party/LoRaWAN/Utilities/trace.c **** 
 290              		.loc 1 95 0
ARM GAS  C:\Users\EBANO_~1\AppData\Local\Temp\ccfjbou7.s 			page 15


 291 0044 2800     		movs	r0, r5
 292 0046 44B0     		add	sp, sp, #272
 293              		@ sp needed
 294              	.LVL20:
 295 0048 04BC     		pop	{r2}
 296 004a 9046     		mov	r8, r2
 297 004c F0BC     		pop	{r4, r5, r6, r7}
 298 004e 08BC     		pop	{r3}
 299 0050 04B0     		add	sp, sp, #16
 300 0052 1847     		bx	r3
 301              	.L14:
  81:../../../../../../Middlewares/Third_Party/LoRaWAN/Utilities/trace.c ****     TracePeripheralReady = RESET;
 302              		.loc 1 81 0
 303 0054 2200     		movs	r2, r4
 304 0056 03A9     		add	r1, sp, #12
 305 0058 3000     		movs	r0, r6
 306              	.LVL21:
 307 005a FFF7FEFF 		bl	circular_queue_get
 308              	.LVL22:
  82:../../../../../../Middlewares/Third_Party/LoRaWAN/Utilities/trace.c ****     //DBG_GPIO_RST(GPIOB, GPIO_PIN_12);
 309              		.loc 1 82 0
 310 005e 4346     		mov	r3, r8
  84:../../../../../../Middlewares/Third_Party/LoRaWAN/Utilities/trace.c **** 
 311              		.loc 1 84 0
 312 0060 0121     		movs	r1, #1
 313 0062 2020     		movs	r0, #32
  82:../../../../../../Middlewares/Third_Party/LoRaWAN/Utilities/trace.c ****     //DBG_GPIO_RST(GPIOB, GPIO_PIN_12);
 314              		.loc 1 82 0
 315 0064 1D70     		strb	r5, [r3]
  84:../../../../../../Middlewares/Third_Party/LoRaWAN/Utilities/trace.c **** 
 316              		.loc 1 84 0
 317 0066 FFF7FEFF 		bl	LPM_SetStopMode
 318              	.LVL23:
 319              	.LBB32:
 320              	.LBB33:
 321              		.loc 2 341 0
 322              		.syntax divided
 323              	@ 341 "../../../../../../Drivers/CMSIS/Include/cmsis_gcc.h" 1
 324 006a 87F31088 		MSR primask, r7
 325              	@ 0 "" 2
 326              	.LVL24:
 327              		.thumb
 328              		.syntax unified
 329              	.LBE33:
 330              	.LBE32:
  87:../../../../../../Middlewares/Third_Party/LoRaWAN/Utilities/trace.c ****   }
 331              		.loc 1 87 0
 332 006e 2188     		ldrh	r1, [r4]
 333 0070 0398     		ldr	r0, [sp, #12]
 334 0072 FFF7FEFF 		bl	vcom_Trace
 335              	.LVL25:
 336 0076 E5E7     		b	.L11
 337              	.L16:
 338              		.align	2
 339              	.L15:
 340 0078 00000000 		.word	.LANCHOR0
 341 007c 00000000 		.word	.LANCHOR1
ARM GAS  C:\Users\EBANO_~1\AppData\Local\Temp\ccfjbou7.s 			page 16


 342              		.cfi_endproc
 343              	.LFE40:
 344              		.size	TraceSend, .-TraceSend
 345              		.section	.text.TraceGetFileName,"ax",%progbits
 346              		.align	1
 347              		.p2align 2,,3
 348              		.global	TraceGetFileName
 349              		.syntax unified
 350              		.code	16
 351              		.thumb_func
 352              		.fpu softvfp
 353              		.type	TraceGetFileName, %function
 354              	TraceGetFileName:
 355              	.LFB41:
  98:../../../../../../Middlewares/Third_Party/LoRaWAN/Utilities/trace.c ****   const char *ret = fullpath;
 356              		.loc 1 98 0
 357              		.cfi_startproc
 358              		@ args = 0, pretend = 0, frame = 0
 359              		@ frame_needed = 0, uses_anonymous_args = 0
 360              	.LVL26:
 361 0000 10B5     		push	{r4, lr}
 362              	.LCFI7:
 363              		.cfi_def_cfa_offset 8
 364              		.cfi_offset 4, -8
 365              		.cfi_offset 14, -4
 101:../../../../../../Middlewares/Third_Party/LoRaWAN/Utilities/trace.c ****   {
 366              		.loc 1 101 0
 367 0002 5C21     		movs	r1, #92
  98:../../../../../../Middlewares/Third_Party/LoRaWAN/Utilities/trace.c ****   const char *ret = fullpath;
 368              		.loc 1 98 0
 369 0004 0400     		movs	r4, r0
 370              	.LVL27:
 101:../../../../../../Middlewares/Third_Party/LoRaWAN/Utilities/trace.c ****   {
 371              		.loc 1 101 0
 372 0006 FFF7FEFF 		bl	strrchr
 373              	.LVL28:
 374 000a 0028     		cmp	r0, #0
 375 000c 01D0     		beq	.L18
 376              	.L21:
 107:../../../../../../Middlewares/Third_Party/LoRaWAN/Utilities/trace.c ****   }
 377              		.loc 1 107 0
 378 000e 0130     		adds	r0, r0, #1
 379              	.LVL29:
 380              	.L17:
 111:../../../../../../Middlewares/Third_Party/LoRaWAN/Utilities/trace.c **** 
 381              		.loc 1 111 0
 382              		@ sp needed
 383              	.LVL30:
 384 0010 10BD     		pop	{r4, pc}
 385              	.LVL31:
 386              	.L18:
 105:../../../../../../Middlewares/Third_Party/LoRaWAN/Utilities/trace.c ****   {
 387              		.loc 1 105 0
 388 0012 2F21     		movs	r1, #47
 389 0014 2000     		movs	r0, r4
 390 0016 FFF7FEFF 		bl	strrchr
 391              	.LVL32:
ARM GAS  C:\Users\EBANO_~1\AppData\Local\Temp\ccfjbou7.s 			page 17


 392 001a 0028     		cmp	r0, #0
 393 001c F7D1     		bne	.L21
 394 001e 2000     		movs	r0, r4
 110:../../../../../../Middlewares/Third_Party/LoRaWAN/Utilities/trace.c **** }
 395              		.loc 1 110 0
 396 0020 F6E7     		b	.L17
 397              		.cfi_endproc
 398              	.LFE41:
 399              		.size	TraceGetFileName, .-TraceGetFileName
 400              		.global	TracePeripheralReady
 401 0022 C046     		.data
 402              		.set	.LANCHOR1,. + 0
 403              		.type	TracePeripheralReady, %object
 404              		.size	TracePeripheralReady, 1
 405              	TracePeripheralReady:
 406 0000 01       		.byte	1
 407              		.bss
 408              		.align	2
 409              		.set	.LANCHOR0,. + 0
 410              		.type	MsgTraceQueue, %object
 411              		.size	MsgTraceQueue, 16
 412              	MsgTraceQueue:
 413 0000 00000000 		.space	16
 413      00000000 
 413      00000000 
 413      00000000 
 414              		.type	MsgTraceQueueBuff, %object
 415              		.size	MsgTraceQueueBuff, 256
 416              	MsgTraceQueueBuff:
 417 0010 00000000 		.space	256
 417      00000000 
 417      00000000 
 417      00000000 
 417      00000000 
 418              		.text
 419              	.Letext0:
 420              		.file 3 "c:\\program files (x86)\\gnu tools arm embedded\\7 2018-q2-update\\arm-none-eabi\\include
 421              		.file 4 "c:\\program files (x86)\\gnu tools arm embedded\\7 2018-q2-update\\arm-none-eabi\\include
 422              		.file 5 "c:\\program files (x86)\\gnu tools arm embedded\\7 2018-q2-update\\arm-none-eabi\\include
 423              		.file 6 "c:\\program files (x86)\\gnu tools arm embedded\\7 2018-q2-update\\arm-none-eabi\\include
 424              		.file 7 "c:\\program files (x86)\\gnu tools arm embedded\\7 2018-q2-update\\lib\\gcc\\arm-none-eab
 425              		.file 8 "c:\\program files (x86)\\gnu tools arm embedded\\7 2018-q2-update\\arm-none-eabi\\include
 426              		.file 9 "c:\\program files (x86)\\gnu tools arm embedded\\7 2018-q2-update\\lib\\gcc\\arm-none-eab
 427              		.file 10 "<built-in>"
 428              		.file 11 "../../../../../../Drivers/CMSIS/Device/ST/STM32L0xx/Include/system_stm32l0xx.h"
 429              		.file 12 "../../../../../../Drivers/CMSIS/Device/ST/STM32L0xx/Include/stm32l0xx.h"
 430              		.file 13 "c:\\program files (x86)\\gnu tools arm embedded\\7 2018-q2-update\\arm-none-eabi\\includ
 431              		.file 14 "../LoRaWAN/App/inc/utilities_conf.h"
 432              		.file 15 "../../../../../../Middlewares/Third_Party/LoRaWAN/Utilities/queue.h"
 433              		.file 16 "../../../../../../Middlewares/Third_Party/LoRaWAN/Utilities/low_power_manager.h"
 434              		.file 17 "../LoRaWAN/App/inc/vcom.h"
 435              		.file 18 "c:\\program files (x86)\\gnu tools arm embedded\\7 2018-q2-update\\arm-none-eabi\\includ
 436              		.file 19 "c:\\program files (x86)\\gnu tools arm embedded\\7 2018-q2-update\\arm-none-eabi\\includ