ARM GAS  C:\Users\EBANO_~1\AppData\Local\Temp\ccn772Xo.s 			page 1


   1              		.cpu cortex-m0plus
   2              		.eabi_attribute 20, 1
   3              		.eabi_attribute 21, 1
   4              		.eabi_attribute 23, 3
   5              		.eabi_attribute 24, 1
   6              		.eabi_attribute 25, 1
   7              		.eabi_attribute 26, 1
   8              		.eabi_attribute 30, 2
   9              		.eabi_attribute 34, 0
  10              		.eabi_attribute 18, 4
  11              		.file	"utilities.c"
  12              		.text
  13              	.Ltext0:
  14              		.cfi_sections	.debug_frame
  15              		.global	__aeabi_uidivmod
  16              		.section	.text.rand1,"ax",%progbits
  17              		.align	1
  18              		.p2align 2,,3
  19              		.global	rand1
  20              		.syntax unified
  21              		.code	16
  22              		.thumb_func
  23              		.fpu softvfp
  24              		.type	rand1, %function
  25              	rand1:
  26              	.LFB39:
  27              		.file 1 "../../../../../../Middlewares/Third_Party/LoRaWAN/Utilities/utilities.c"
   1:../../../../../../Middlewares/Third_Party/LoRaWAN/Utilities/utilities.c **** /*
   2:../../../../../../Middlewares/Third_Party/LoRaWAN/Utilities/utilities.c ****  / _____)             _              | |
   3:../../../../../../Middlewares/Third_Party/LoRaWAN/Utilities/utilities.c **** ( (____  _____ ____ _| |_ _____  ____| |__
   4:../../../../../../Middlewares/Third_Party/LoRaWAN/Utilities/utilities.c ****  \____ \| ___ |    (_   _) ___ |/ ___)  _ \
   5:../../../../../../Middlewares/Third_Party/LoRaWAN/Utilities/utilities.c ****  _____) ) ____| | | || |_| ____( (___| | | |
   6:../../../../../../Middlewares/Third_Party/LoRaWAN/Utilities/utilities.c **** (______/|_____)_|_|_| \__)_____)\____)_| |_|
   7:../../../../../../Middlewares/Third_Party/LoRaWAN/Utilities/utilities.c ****     (C)2013 Semtech
   8:../../../../../../Middlewares/Third_Party/LoRaWAN/Utilities/utilities.c **** 
   9:../../../../../../Middlewares/Third_Party/LoRaWAN/Utilities/utilities.c **** Description: Helper functions implementation
  10:../../../../../../Middlewares/Third_Party/LoRaWAN/Utilities/utilities.c **** 
  11:../../../../../../Middlewares/Third_Party/LoRaWAN/Utilities/utilities.c **** License: Revised BSD License, see LICENSE.TXT file include in the project
  12:../../../../../../Middlewares/Third_Party/LoRaWAN/Utilities/utilities.c **** 
  13:../../../../../../Middlewares/Third_Party/LoRaWAN/Utilities/utilities.c **** Maintainer: Miguel Luis and Gregory Cristian
  14:../../../../../../Middlewares/Third_Party/LoRaWAN/Utilities/utilities.c **** */
  15:../../../../../../Middlewares/Third_Party/LoRaWAN/Utilities/utilities.c **** #include <stdlib.h>
  16:../../../../../../Middlewares/Third_Party/LoRaWAN/Utilities/utilities.c **** #include <stdio.h>
  17:../../../../../../Middlewares/Third_Party/LoRaWAN/Utilities/utilities.c **** #include <stdint.h>
  18:../../../../../../Middlewares/Third_Party/LoRaWAN/Utilities/utilities.c **** #include "utilities.h"
  19:../../../../../../Middlewares/Third_Party/LoRaWAN/Utilities/utilities.c **** 
  20:../../../../../../Middlewares/Third_Party/LoRaWAN/Utilities/utilities.c **** /*!
  21:../../../../../../Middlewares/Third_Party/LoRaWAN/Utilities/utilities.c ****  * Redefinition of rand() and srand() standard C functions.
  22:../../../../../../Middlewares/Third_Party/LoRaWAN/Utilities/utilities.c ****  * These functions are redefined in order to get the same behavior across
  23:../../../../../../Middlewares/Third_Party/LoRaWAN/Utilities/utilities.c ****  * different compiler toolchains implementations.
  24:../../../../../../Middlewares/Third_Party/LoRaWAN/Utilities/utilities.c ****  */
  25:../../../../../../Middlewares/Third_Party/LoRaWAN/Utilities/utilities.c **** // Standard random functions redefinition start
  26:../../../../../../Middlewares/Third_Party/LoRaWAN/Utilities/utilities.c **** #define RAND_LOCAL_MAX 2147483647L
  27:../../../../../../Middlewares/Third_Party/LoRaWAN/Utilities/utilities.c **** 
  28:../../../../../../Middlewares/Third_Party/LoRaWAN/Utilities/utilities.c **** static uint32_t next = 1;
  29:../../../../../../Middlewares/Third_Party/LoRaWAN/Utilities/utilities.c **** 
  30:../../../../../../Middlewares/Third_Party/LoRaWAN/Utilities/utilities.c **** int32_t rand1( void )
ARM GAS  C:\Users\EBANO_~1\AppData\Local\Temp\ccn772Xo.s 			page 2


  31:../../../../../../Middlewares/Third_Party/LoRaWAN/Utilities/utilities.c **** {
  28              		.loc 1 31 0
  29              		.cfi_startproc
  30              		@ args = 0, pretend = 0, frame = 0
  31              		@ frame_needed = 0, uses_anonymous_args = 0
  32:../../../../../../Middlewares/Third_Party/LoRaWAN/Utilities/utilities.c ****     return ( ( next = next * 1103515245L + 12345L ) % RAND_LOCAL_MAX );
  32              		.loc 1 32 0
  33 0000 064B     		ldr	r3, .L3
  34 0002 0748     		ldr	r0, .L3+4
  35 0004 1A68     		ldr	r2, [r3]
  31:../../../../../../Middlewares/Third_Party/LoRaWAN/Utilities/utilities.c ****     return ( ( next = next * 1103515245L + 12345L ) % RAND_LOCAL_MAX );
  36              		.loc 1 31 0
  37 0006 10B5     		push	{r4, lr}
  38              	.LCFI0:
  39              		.cfi_def_cfa_offset 8
  40              		.cfi_offset 4, -8
  41              		.cfi_offset 14, -4
  42              		.loc 1 32 0
  43 0008 5043     		muls	r0, r2
  44 000a 064A     		ldr	r2, .L3+8
  45 000c 0649     		ldr	r1, .L3+12
  46 000e 9446     		mov	ip, r2
  47 0010 6044     		add	r0, r0, ip
  48 0012 1860     		str	r0, [r3]
  49 0014 FFF7FEFF 		bl	__aeabi_uidivmod
  50              	.LVL0:
  33:../../../../../../Middlewares/Third_Party/LoRaWAN/Utilities/utilities.c **** }
  51              		.loc 1 33 0
  52              		@ sp needed
  53 0018 0800     		movs	r0, r1
  54 001a 10BD     		pop	{r4, pc}
  55              	.L4:
  56              		.align	2
  57              	.L3:
  58 001c 00000000 		.word	.LANCHOR0
  59 0020 6D4EC641 		.word	1103515245
  60 0024 39300000 		.word	12345
  61 0028 FFFFFF7F 		.word	2147483647
  62              		.cfi_endproc
  63              	.LFE39:
  64              		.size	rand1, .-rand1
  65              		.section	.text.srand1,"ax",%progbits
  66              		.align	1
  67              		.p2align 2,,3
  68              		.global	srand1
  69              		.syntax unified
  70              		.code	16
  71              		.thumb_func
  72              		.fpu softvfp
  73              		.type	srand1, %function
  74              	srand1:
  75              	.LFB40:
  34:../../../../../../Middlewares/Third_Party/LoRaWAN/Utilities/utilities.c **** 
  35:../../../../../../Middlewares/Third_Party/LoRaWAN/Utilities/utilities.c **** void srand1( uint32_t seed )
  36:../../../../../../Middlewares/Third_Party/LoRaWAN/Utilities/utilities.c **** {
  76              		.loc 1 36 0
  77              		.cfi_startproc
ARM GAS  C:\Users\EBANO_~1\AppData\Local\Temp\ccn772Xo.s 			page 3


  78              		@ args = 0, pretend = 0, frame = 0
  79              		@ frame_needed = 0, uses_anonymous_args = 0
  80              		@ link register save eliminated.
  81              	.LVL1:
  37:../../../../../../Middlewares/Third_Party/LoRaWAN/Utilities/utilities.c ****     next = seed;
  82              		.loc 1 37 0
  83 0000 014B     		ldr	r3, .L6
  38:../../../../../../Middlewares/Third_Party/LoRaWAN/Utilities/utilities.c **** }
  84              		.loc 1 38 0
  85              		@ sp needed
  37:../../../../../../Middlewares/Third_Party/LoRaWAN/Utilities/utilities.c ****     next = seed;
  86              		.loc 1 37 0
  87 0002 1860     		str	r0, [r3]
  88              		.loc 1 38 0
  89 0004 7047     		bx	lr
  90              	.L7:
  91 0006 C046     		.align	2
  92              	.L6:
  93 0008 00000000 		.word	.LANCHOR0
  94              		.cfi_endproc
  95              	.LFE40:
  96              		.size	srand1, .-srand1
  97              		.global	__aeabi_idivmod
  98              		.section	.text.randr,"ax",%progbits
  99              		.align	1
 100              		.p2align 2,,3
 101              		.global	randr
 102              		.syntax unified
 103              		.code	16
 104              		.thumb_func
 105              		.fpu softvfp
 106              		.type	randr, %function
 107              	randr:
 108              	.LFB41:
  39:../../../../../../Middlewares/Third_Party/LoRaWAN/Utilities/utilities.c **** // Standard random functions redefinition end
  40:../../../../../../Middlewares/Third_Party/LoRaWAN/Utilities/utilities.c **** 
  41:../../../../../../Middlewares/Third_Party/LoRaWAN/Utilities/utilities.c **** int32_t randr( int32_t min, int32_t max )
  42:../../../../../../Middlewares/Third_Party/LoRaWAN/Utilities/utilities.c **** {
 109              		.loc 1 42 0
 110              		.cfi_startproc
 111              		@ args = 0, pretend = 0, frame = 0
 112              		@ frame_needed = 0, uses_anonymous_args = 0
 113              	.LVL2:
 114              	.LBB4:
 115              	.LBB5:
  32:../../../../../../Middlewares/Third_Party/LoRaWAN/Utilities/utilities.c **** }
 116              		.loc 1 32 0
 117 0000 0A4B     		ldr	r3, .L9
 118              	.LBE5:
 119              	.LBE4:
 120              		.loc 1 42 0
 121 0002 70B5     		push	{r4, r5, r6, lr}
 122              	.LCFI1:
 123              		.cfi_def_cfa_offset 16
 124              		.cfi_offset 4, -16
 125              		.cfi_offset 5, -12
 126              		.cfi_offset 6, -8
ARM GAS  C:\Users\EBANO_~1\AppData\Local\Temp\ccn772Xo.s 			page 4


 127              		.cfi_offset 14, -4
 128              	.LBB9:
 129              	.LBB6:
  32:../../../../../../Middlewares/Third_Party/LoRaWAN/Utilities/utilities.c **** }
 130              		.loc 1 32 0
 131 0004 1A68     		ldr	r2, [r3]
 132              	.LBE6:
 133              	.LBE9:
 134              		.loc 1 42 0
 135 0006 0500     		movs	r5, r0
 136              	.LBB10:
 137              	.LBB7:
  32:../../../../../../Middlewares/Third_Party/LoRaWAN/Utilities/utilities.c **** }
 138              		.loc 1 32 0
 139 0008 0948     		ldr	r0, .L9+4
 140              	.LVL3:
 141              	.LBE7:
 142              	.LBE10:
 143              		.loc 1 42 0
 144 000a 0C00     		movs	r4, r1
 145              	.LBB11:
 146              	.LBB8:
  32:../../../../../../Middlewares/Third_Party/LoRaWAN/Utilities/utilities.c **** }
 147              		.loc 1 32 0
 148 000c 5043     		muls	r0, r2
 149 000e 094A     		ldr	r2, .L9+8
 150 0010 0949     		ldr	r1, .L9+12
 151              	.LVL4:
 152 0012 9446     		mov	ip, r2
 153 0014 6044     		add	r0, r0, ip
 154 0016 1860     		str	r0, [r3]
 155 0018 FFF7FEFF 		bl	__aeabi_uidivmod
 156              	.LVL5:
 157 001c 0800     		movs	r0, r1
 158              	.LBE8:
 159              	.LBE11:
  43:../../../../../../Middlewares/Third_Party/LoRaWAN/Utilities/utilities.c ****     return ( int32_t )rand1( ) % ( max - min + 1 ) + min;
 160              		.loc 1 43 0
 161 001e 611B     		subs	r1, r4, r5
 162 0020 0131     		adds	r1, r1, #1
 163 0022 FFF7FEFF 		bl	__aeabi_idivmod
 164              	.LVL6:
  44:../../../../../../Middlewares/Third_Party/LoRaWAN/Utilities/utilities.c **** }
 165              		.loc 1 44 0
 166              		@ sp needed
  43:../../../../../../Middlewares/Third_Party/LoRaWAN/Utilities/utilities.c ****     return ( int32_t )rand1( ) % ( max - min + 1 ) + min;
 167              		.loc 1 43 0
 168 0026 4819     		adds	r0, r1, r5
 169              	.LVL7:
 170              	.LVL8:
 171              		.loc 1 44 0
 172 0028 70BD     		pop	{r4, r5, r6, pc}
 173              	.L10:
 174 002a C046     		.align	2
 175              	.L9:
 176 002c 00000000 		.word	.LANCHOR0
 177 0030 6D4EC641 		.word	1103515245
ARM GAS  C:\Users\EBANO_~1\AppData\Local\Temp\ccn772Xo.s 			page 5


 178 0034 39300000 		.word	12345
 179 0038 FFFFFF7F 		.word	2147483647
 180              		.cfi_endproc
 181              	.LFE41:
 182              		.size	randr, .-randr
 183              		.section	.text.memcpy1,"ax",%progbits
 184              		.align	1
 185              		.p2align 2,,3
 186              		.global	memcpy1
 187              		.syntax unified
 188              		.code	16
 189              		.thumb_func
 190              		.fpu softvfp
 191              		.type	memcpy1, %function
 192              	memcpy1:
 193              	.LFB42:
  45:../../../../../../Middlewares/Third_Party/LoRaWAN/Utilities/utilities.c **** 
  46:../../../../../../Middlewares/Third_Party/LoRaWAN/Utilities/utilities.c **** void memcpy1( uint8_t *dst, const uint8_t *src, uint16_t size )
  47:../../../../../../Middlewares/Third_Party/LoRaWAN/Utilities/utilities.c **** {
 194              		.loc 1 47 0
 195              		.cfi_startproc
 196              		@ args = 0, pretend = 0, frame = 0
 197              		@ frame_needed = 0, uses_anonymous_args = 0
 198              	.LVL9:
 199 0000 F0B5     		push	{r4, r5, r6, r7, lr}
 200              	.LCFI2:
 201              		.cfi_def_cfa_offset 20
 202              		.cfi_offset 4, -20
 203              		.cfi_offset 5, -16
 204              		.cfi_offset 6, -12
 205              		.cfi_offset 7, -8
 206              		.cfi_offset 14, -4
  48:../../../../../../Middlewares/Third_Party/LoRaWAN/Utilities/utilities.c ****     while( size-- )
 207              		.loc 1 48 0
 208 0002 551E     		subs	r5, r2, #1
 209 0004 ADB2     		uxth	r5, r5
 210              	.LVL10:
 211 0006 002A     		cmp	r2, #0
 212 0008 32D0     		beq	.L11
 213 000a 0023     		movs	r3, #0
 214 000c 1E00     		movs	r6, r3
 215 000e 041D     		adds	r4, r0, #4
 216 0010 A142     		cmp	r1, r4
 217 0012 5E41     		adcs	r6, r6, r3
 218 0014 3400     		movs	r4, r6
 219 0016 0E1D     		adds	r6, r1, #4
 220 0018 B042     		cmp	r0, r6
 221 001a 5B41     		adcs	r3, r3, r3
 222 001c 2343     		orrs	r3, r4
 223 001e 0924     		movs	r4, #9
 224 0020 9442     		cmp	r4, r2
 225 0022 A441     		sbcs	r4, r4, r4
 226 0024 6442     		rsbs	r4, r4, #0
 227 0026 1C42     		tst	r4, r3
 228 0028 23D0     		beq	.L13
 229 002a 0300     		movs	r3, r0
 230 002c 0B43     		orrs	r3, r1
ARM GAS  C:\Users\EBANO_~1\AppData\Local\Temp\ccn772Xo.s 			page 6


 231 002e 9B07     		lsls	r3, r3, #30
 232 0030 1FD1     		bne	.L13
 233 0032 022D     		cmp	r5, #2
 234 0034 12D9     		bls	.L14
 235 0036 0023     		movs	r3, #0
 236 0038 0024     		movs	r4, #0
 237 003a 9708     		lsrs	r7, r2, #2
 238              	.LVL11:
 239              	.L15:
  49:../../../../../../Middlewares/Third_Party/LoRaWAN/Utilities/utilities.c ****     {
  50:../../../../../../Middlewares/Third_Party/LoRaWAN/Utilities/utilities.c ****         *dst++ = *src++;
 240              		.loc 1 50 0
 241 003c CE58     		ldr	r6, [r1, r3]
 242 003e 0134     		adds	r4, r4, #1
 243 0040 C650     		str	r6, [r0, r3]
 244 0042 A6B2     		uxth	r6, r4
 245 0044 0433     		adds	r3, r3, #4
 246 0046 B742     		cmp	r7, r6
 247 0048 F8D8     		bhi	.L15
 248 004a 0323     		movs	r3, #3
 249 004c 1400     		movs	r4, r2
 250 004e 9C43     		bics	r4, r3
 251 0050 2D1B     		subs	r5, r5, r4
 252 0052 0019     		adds	r0, r0, r4
 253 0054 0919     		adds	r1, r1, r4
 254 0056 ADB2     		uxth	r5, r5
 255 0058 A242     		cmp	r2, r4
 256 005a 09D0     		beq	.L11
 257              	.L14:
 258              	.LVL12:
 259 005c 0B78     		ldrb	r3, [r1]
 260 005e 0370     		strb	r3, [r0]
 261              	.LVL13:
  48:../../../../../../Middlewares/Third_Party/LoRaWAN/Utilities/utilities.c ****     while( size-- )
 262              		.loc 1 48 0
 263 0060 002D     		cmp	r5, #0
 264 0062 05D0     		beq	.L11
 265              	.LVL14:
 266              		.loc 1 50 0
 267 0064 4B78     		ldrb	r3, [r1, #1]
 268 0066 4370     		strb	r3, [r0, #1]
 269              	.LVL15:
  48:../../../../../../Middlewares/Third_Party/LoRaWAN/Utilities/utilities.c ****     while( size-- )
 270              		.loc 1 48 0
 271 0068 012D     		cmp	r5, #1
 272 006a 01D0     		beq	.L11
 273              	.LVL16:
 274              		.loc 1 50 0
 275 006c 8B78     		ldrb	r3, [r1, #2]
 276 006e 8370     		strb	r3, [r0, #2]
 277              	.LVL17:
 278              	.L11:
  51:../../../../../../Middlewares/Third_Party/LoRaWAN/Utilities/utilities.c ****     }
  52:../../../../../../Middlewares/Third_Party/LoRaWAN/Utilities/utilities.c **** }
 279              		.loc 1 52 0
 280              		@ sp needed
 281 0070 F0BD     		pop	{r4, r5, r6, r7, pc}
ARM GAS  C:\Users\EBANO_~1\AppData\Local\Temp\ccn772Xo.s 			page 7


 282              	.LVL18:
 283              	.L13:
  48:../../../../../../Middlewares/Third_Party/LoRaWAN/Utilities/utilities.c ****     {
 284              		.loc 1 48 0
 285 0072 0023     		movs	r3, #0
 286 0074 0135     		adds	r5, r5, #1
 287              	.LVL19:
 288              	.L17:
  50:../../../../../../Middlewares/Third_Party/LoRaWAN/Utilities/utilities.c ****     }
 289              		.loc 1 50 0
 290 0076 CA5C     		ldrb	r2, [r1, r3]
 291 0078 C254     		strb	r2, [r0, r3]
 292 007a 0133     		adds	r3, r3, #1
 293              	.LVL20:
  48:../../../../../../Middlewares/Third_Party/LoRaWAN/Utilities/utilities.c ****     {
 294              		.loc 1 48 0
 295 007c AB42     		cmp	r3, r5
 296 007e FAD1     		bne	.L17
 297 0080 F6E7     		b	.L11
 298              		.cfi_endproc
 299              	.LFE42:
 300              		.size	memcpy1, .-memcpy1
 301 0082 C046     		.section	.text.memcpyr,"ax",%progbits
 302              		.align	1
 303              		.p2align 2,,3
 304              		.global	memcpyr
 305              		.syntax unified
 306              		.code	16
 307              		.thumb_func
 308              		.fpu softvfp
 309              		.type	memcpyr, %function
 310              	memcpyr:
 311              	.LFB43:
  53:../../../../../../Middlewares/Third_Party/LoRaWAN/Utilities/utilities.c **** 
  54:../../../../../../Middlewares/Third_Party/LoRaWAN/Utilities/utilities.c **** void memcpyr( uint8_t *dst, const uint8_t *src, uint16_t size )
  55:../../../../../../Middlewares/Third_Party/LoRaWAN/Utilities/utilities.c **** {
 312              		.loc 1 55 0
 313              		.cfi_startproc
 314              		@ args = 0, pretend = 0, frame = 0
 315              		@ frame_needed = 0, uses_anonymous_args = 0
 316              		@ link register save eliminated.
 317              	.LVL21:
  56:../../../../../../Middlewares/Third_Party/LoRaWAN/Utilities/utilities.c ****     dst = dst + ( size - 1 );
 318              		.loc 1 56 0
 319 0000 531E     		subs	r3, r2, #1
 320 0002 C018     		adds	r0, r0, r3
 321              	.LVL22:
  57:../../../../../../Middlewares/Third_Party/LoRaWAN/Utilities/utilities.c ****     while( size-- )
 322              		.loc 1 57 0
 323 0004 9BB2     		uxth	r3, r3
 324              	.LVL23:
 325 0006 002A     		cmp	r2, #0
 326 0008 07D0     		beq	.L36
 327 000a DB43     		mvns	r3, r3
 328              	.LVL24:
 329 000c C318     		adds	r3, r0, r3
 330              	.LVL25:
ARM GAS  C:\Users\EBANO_~1\AppData\Local\Temp\ccn772Xo.s 			page 8


 331              	.L38:
  58:../../../../../../Middlewares/Third_Party/LoRaWAN/Utilities/utilities.c ****     {
  59:../../../../../../Middlewares/Third_Party/LoRaWAN/Utilities/utilities.c ****         *dst-- = *src++;
 332              		.loc 1 59 0
 333 000e 0A78     		ldrb	r2, [r1]
 334 0010 0138     		subs	r0, r0, #1
 335              	.LVL26:
 336 0012 4270     		strb	r2, [r0, #1]
 337 0014 0131     		adds	r1, r1, #1
 338              	.LVL27:
  57:../../../../../../Middlewares/Third_Party/LoRaWAN/Utilities/utilities.c ****     while( size-- )
 339              		.loc 1 57 0
 340 0016 9842     		cmp	r0, r3
 341 0018 F9D1     		bne	.L38
 342              	.LVL28:
 343              	.L36:
  60:../../../../../../Middlewares/Third_Party/LoRaWAN/Utilities/utilities.c ****     }
  61:../../../../../../Middlewares/Third_Party/LoRaWAN/Utilities/utilities.c **** }
 344              		.loc 1 61 0
 345              		@ sp needed
 346 001a 7047     		bx	lr
 347              		.cfi_endproc
 348              	.LFE43:
 349              		.size	memcpyr, .-memcpyr
 350              		.section	.text.memset1,"ax",%progbits
 351              		.align	1
 352              		.p2align 2,,3
 353              		.global	memset1
 354              		.syntax unified
 355              		.code	16
 356              		.thumb_func
 357              		.fpu softvfp
 358              		.type	memset1, %function
 359              	memset1:
 360              	.LFB44:
  62:../../../../../../Middlewares/Third_Party/LoRaWAN/Utilities/utilities.c **** 
  63:../../../../../../Middlewares/Third_Party/LoRaWAN/Utilities/utilities.c **** void memset1( uint8_t *dst, uint8_t value, uint16_t size )
  64:../../../../../../Middlewares/Third_Party/LoRaWAN/Utilities/utilities.c **** {
 361              		.loc 1 64 0
 362              		.cfi_startproc
 363              		@ args = 0, pretend = 0, frame = 0
 364              		@ frame_needed = 0, uses_anonymous_args = 0
 365              	.LVL29:
 366 0000 10B5     		push	{r4, lr}
 367              	.LCFI3:
 368              		.cfi_def_cfa_offset 8
 369              		.cfi_offset 4, -8
 370              		.cfi_offset 14, -4
  65:../../../../../../Middlewares/Third_Party/LoRaWAN/Utilities/utilities.c ****     while( size-- )
 371              		.loc 1 65 0
 372 0002 002A     		cmp	r2, #0
 373 0004 04D0     		beq	.L43
  66:../../../../../../Middlewares/Third_Party/LoRaWAN/Utilities/utilities.c ****     {
  67:../../../../../../Middlewares/Third_Party/LoRaWAN/Utilities/utilities.c ****         *dst++ = value;
 374              		.loc 1 67 0
 375 0006 013A     		subs	r2, r2, #1
 376              	.LVL30:
ARM GAS  C:\Users\EBANO_~1\AppData\Local\Temp\ccn772Xo.s 			page 9


 377 0008 92B2     		uxth	r2, r2
 378 000a 0132     		adds	r2, r2, #1
 379 000c FFF7FEFF 		bl	memset
 380              	.LVL31:
 381              	.L43:
  68:../../../../../../Middlewares/Third_Party/LoRaWAN/Utilities/utilities.c ****     }
  69:../../../../../../Middlewares/Third_Party/LoRaWAN/Utilities/utilities.c **** }
 382              		.loc 1 69 0
 383              		@ sp needed
 384 0010 10BD     		pop	{r4, pc}
 385              		.cfi_endproc
 386              	.LFE44:
 387              		.size	memset1, .-memset1
 388 0012 C046     		.section	.text.Nibble2HexChar,"ax",%progbits
 389              		.align	1
 390              		.p2align 2,,3
 391              		.global	Nibble2HexChar
 392              		.syntax unified
 393              		.code	16
 394              		.thumb_func
 395              		.fpu softvfp
 396              		.type	Nibble2HexChar, %function
 397              	Nibble2HexChar:
 398              	.LFB45:
  70:../../../../../../Middlewares/Third_Party/LoRaWAN/Utilities/utilities.c **** 
  71:../../../../../../Middlewares/Third_Party/LoRaWAN/Utilities/utilities.c **** int8_t Nibble2HexChar( uint8_t a )
  72:../../../../../../Middlewares/Third_Party/LoRaWAN/Utilities/utilities.c **** {
 399              		.loc 1 72 0
 400              		.cfi_startproc
 401              		@ args = 0, pretend = 0, frame = 0
 402              		@ frame_needed = 0, uses_anonymous_args = 0
 403              		@ link register save eliminated.
 404              	.LVL32:
  73:../../../../../../Middlewares/Third_Party/LoRaWAN/Utilities/utilities.c ****     if( a < 10 )
 405              		.loc 1 73 0
 406 0000 0928     		cmp	r0, #9
 407 0002 04D9     		bls	.L52
  74:../../../../../../Middlewares/Third_Party/LoRaWAN/Utilities/utilities.c ****     {
  75:../../../../../../Middlewares/Third_Party/LoRaWAN/Utilities/utilities.c ****         return '0' + a;
  76:../../../../../../Middlewares/Third_Party/LoRaWAN/Utilities/utilities.c ****     }
  77:../../../../../../Middlewares/Third_Party/LoRaWAN/Utilities/utilities.c ****     else if( a < 16 )
 408              		.loc 1 77 0
 409 0004 0F28     		cmp	r0, #15
 410 0006 05D8     		bhi	.L51
  78:../../../../../../Middlewares/Third_Party/LoRaWAN/Utilities/utilities.c ****     {
  79:../../../../../../Middlewares/Third_Party/LoRaWAN/Utilities/utilities.c ****         return 'A' + ( a - 10 );
 411              		.loc 1 79 0
 412 0008 3730     		adds	r0, r0, #55
 413              	.LVL33:
 414 000a 40B2     		sxtb	r0, r0
 415              	.L50:
  80:../../../../../../Middlewares/Third_Party/LoRaWAN/Utilities/utilities.c ****     }
  81:../../../../../../Middlewares/Third_Party/LoRaWAN/Utilities/utilities.c ****     else
  82:../../../../../../Middlewares/Third_Party/LoRaWAN/Utilities/utilities.c ****     {
  83:../../../../../../Middlewares/Third_Party/LoRaWAN/Utilities/utilities.c ****         return '?';
  84:../../../../../../Middlewares/Third_Party/LoRaWAN/Utilities/utilities.c ****     }
  85:../../../../../../Middlewares/Third_Party/LoRaWAN/Utilities/utilities.c **** }
ARM GAS  C:\Users\EBANO_~1\AppData\Local\Temp\ccn772Xo.s 			page 10


 416              		.loc 1 85 0
 417              		@ sp needed
 418 000c 7047     		bx	lr
 419              	.LVL34:
 420              	.L52:
  75:../../../../../../Middlewares/Third_Party/LoRaWAN/Utilities/utilities.c ****     }
 421              		.loc 1 75 0
 422 000e 3030     		adds	r0, r0, #48
 423              	.LVL35:
 424 0010 40B2     		sxtb	r0, r0
 425 0012 FBE7     		b	.L50
 426              	.LVL36:
 427              	.L51:
  83:../../../../../../Middlewares/Third_Party/LoRaWAN/Utilities/utilities.c ****     }
 428              		.loc 1 83 0
 429 0014 3F20     		movs	r0, #63
 430              	.LVL37:
 431 0016 F9E7     		b	.L50
 432              		.cfi_endproc
 433              	.LFE45:
 434              		.size	Nibble2HexChar, .-Nibble2HexChar
 435              		.data
 436              		.align	2
 437              		.set	.LANCHOR0,. + 0
 438              		.type	next, %object
 439              		.size	next, 4
 440              	next:
 441 0000 01000000 		.word	1
 442              		.text
 443              	.Letext0:
 444              		.file 2 "c:\\program files (x86)\\gnu tools arm embedded\\7 2018-q2-update\\arm-none-eabi\\include
 445              		.file 3 "c:\\program files (x86)\\gnu tools arm embedded\\7 2018-q2-update\\arm-none-eabi\\include
 446              		.file 4 "c:\\program files (x86)\\gnu tools arm embedded\\7 2018-q2-update\\arm-none-eabi\\include
 447              		.file 5 "c:\\program files (x86)\\gnu tools arm embedded\\7 2018-q2-update\\lib\\gcc\\arm-none-eab
 448              		.file 6 "c:\\program files (x86)\\gnu tools arm embedded\\7 2018-q2-update\\arm-none-eabi\\include
 449              		.file 7 "c:\\program files (x86)\\gnu tools arm embedded\\7 2018-q2-update\\arm-none-eabi\\include
 450              		.file 8 "c:\\program files (x86)\\gnu tools arm embedded\\7 2018-q2-update\\arm-none-eabi\\include
 451              		.file 9 "../../../../../../Drivers/CMSIS/Device/ST/STM32L0xx/Include/system_stm32l0xx.h"
 452              		.file 10 "<built-in>"
 453              		.section	.debug_info,"",%progbits
 454              	.Ldebug_info0:
 455 0000 3C0C0000 		.4byte	0xc3c
 456 0004 0200     		.2byte	0x2
 457 0006 00000000 		.4byte	.Ldebug_abbrev0
 458 000a 04       		.byte	0x4
 459 000b 01       		.uleb128 0x1
 460 000c 75030000 		.4byte	.LASF145
 461 0010 0C       		.byte	0xc
 462 0011 B0020000 		.4byte	.LASF146
 463 0015 03060000 		.4byte	.LASF147
 464 0019 28000000 		.4byte	.Ldebug_ranges0+0x28
 465 001d 00000000 		.4byte	0
 466 0021 00000000 		.4byte	0
 467 0025 00000000 		.4byte	.Ldebug_line0
 468 0029 02       		.uleb128 0x2
 469 002a 04       		.byte	0x4
 470 002b 07       		.byte	0x7
ARM GAS  C:\Users\EBANO_~1\AppData\Local\Temp\ccn772Xo.s 			page 11


 471 002c 23050000 		.4byte	.LASF0
 472 0030 03       		.uleb128 0x3
 473 0031 04       		.byte	0x4
 474 0032 05       		.byte	0x5
 475 0033 696E7400 		.ascii	"int\000"
 476 0037 02       		.uleb128 0x2
 477 0038 08       		.byte	0x8
 478 0039 05       		.byte	0x5
 479 003a 56010000 		.4byte	.LASF1
 480 003e 02       		.uleb128 0x2
 481 003f 08       		.byte	0x8
 482 0040 04       		.byte	0x4
 483 0041 FC040000 		.4byte	.LASF2
 484 0045 04       		.uleb128 0x4
 485 0046 AE000000 		.4byte	.LASF4
 486 004a 02       		.byte	0x2
 487 004b 29       		.byte	0x29
 488 004c 50000000 		.4byte	0x50
 489 0050 02       		.uleb128 0x2
 490 0051 01       		.byte	0x1
 491 0052 06       		.byte	0x6
 492 0053 E2000000 		.4byte	.LASF3
 493 0057 04       		.uleb128 0x4
 494 0058 31000000 		.4byte	.LASF5
 495 005c 02       		.byte	0x2
 496 005d 2B       		.byte	0x2b
 497 005e 62000000 		.4byte	0x62
 498 0062 02       		.uleb128 0x2
 499 0063 01       		.byte	0x1
 500 0064 08       		.byte	0x8
 501 0065 15040000 		.4byte	.LASF6
 502 0069 02       		.uleb128 0x2
 503 006a 02       		.byte	0x2
 504 006b 05       		.byte	0x5
 505 006c 0C000000 		.4byte	.LASF7
 506 0070 04       		.uleb128 0x4
 507 0071 30050000 		.4byte	.LASF8
 508 0075 02       		.byte	0x2
 509 0076 39       		.byte	0x39
 510 0077 7B000000 		.4byte	0x7b
 511 007b 02       		.uleb128 0x2
 512 007c 02       		.byte	0x2
 513 007d 07       		.byte	0x7
 514 007e 6F050000 		.4byte	.LASF9
 515 0082 04       		.uleb128 0x4
 516 0083 3B050000 		.4byte	.LASF10
 517 0087 02       		.byte	0x2
 518 0088 4D       		.byte	0x4d
 519 0089 8D000000 		.4byte	0x8d
 520 008d 02       		.uleb128 0x2
 521 008e 04       		.byte	0x4
 522 008f 05       		.byte	0x5
 523 0090 27010000 		.4byte	.LASF11
 524 0094 04       		.uleb128 0x4
 525 0095 A9010000 		.4byte	.LASF12
 526 0099 02       		.byte	0x2
 527 009a 4F       		.byte	0x4f
ARM GAS  C:\Users\EBANO_~1\AppData\Local\Temp\ccn772Xo.s 			page 12


 528 009b 9F000000 		.4byte	0x9f
 529 009f 02       		.uleb128 0x2
 530 00a0 04       		.byte	0x4
 531 00a1 07       		.byte	0x7
 532 00a2 21020000 		.4byte	.LASF13
 533 00a6 02       		.uleb128 0x2
 534 00a7 08       		.byte	0x8
 535 00a8 07       		.byte	0x7
 536 00a9 75000000 		.4byte	.LASF14
 537 00ad 04       		.uleb128 0x4
 538 00ae 7D020000 		.4byte	.LASF15
 539 00b2 03       		.byte	0x3
 540 00b3 22       		.byte	0x22
 541 00b4 B8000000 		.4byte	0xb8
 542 00b8 05       		.uleb128 0x5
 543 00b9 04       		.byte	0x4
 544 00ba BE000000 		.4byte	0xbe
 545 00be 06       		.uleb128 0x6
 546 00bf D5040000 		.4byte	.LASF122
 547 00c3 01       		.byte	0x1
 548 00c4 04       		.uleb128 0x4
 549 00c5 D4000000 		.4byte	.LASF16
 550 00c9 04       		.byte	0x4
 551 00ca 2C       		.byte	0x2c
 552 00cb 8D000000 		.4byte	0x8d
 553 00cf 04       		.uleb128 0x4
 554 00d0 F4040000 		.4byte	.LASF17
 555 00d4 04       		.byte	0x4
 556 00d5 72       		.byte	0x72
 557 00d6 8D000000 		.4byte	0x8d
 558 00da 07       		.uleb128 0x7
 559 00db 56030000 		.4byte	.LASF18
 560 00df 05       		.byte	0x5
 561 00e0 6501     		.2byte	0x165
 562 00e2 29000000 		.4byte	0x29
 563 00e6 08       		.uleb128 0x8
 564 00e7 04       		.byte	0x4
 565 00e8 04       		.byte	0x4
 566 00e9 A6       		.byte	0xa6
 567 00ea 05010000 		.4byte	0x105
 568 00ee 09       		.uleb128 0x9
 569 00ef 77020000 		.4byte	.LASF19
 570 00f3 04       		.byte	0x4
 571 00f4 A8       		.byte	0xa8
 572 00f5 DA000000 		.4byte	0xda
 573 00f9 09       		.uleb128 0x9
 574 00fa F5010000 		.4byte	.LASF20
 575 00fe 04       		.byte	0x4
 576 00ff A9       		.byte	0xa9
 577 0100 05010000 		.4byte	0x105
 578 0104 00       		.byte	0
 579 0105 0A       		.uleb128 0xa
 580 0106 62000000 		.4byte	0x62
 581 010a 15010000 		.4byte	0x115
 582 010e 0B       		.uleb128 0xb
 583 010f 29000000 		.4byte	0x29
 584 0113 03       		.byte	0x3
ARM GAS  C:\Users\EBANO_~1\AppData\Local\Temp\ccn772Xo.s 			page 13


 585 0114 00       		.byte	0
 586 0115 0C       		.uleb128 0xc
 587 0116 08       		.byte	0x8
 588 0117 04       		.byte	0x4
 589 0118 A3       		.byte	0xa3
 590 0119 3A010000 		.4byte	0x13a
 591 011d 0D       		.uleb128 0xd
 592 011e CD040000 		.4byte	.LASF21
 593 0122 04       		.byte	0x4
 594 0123 A5       		.byte	0xa5
 595 0124 30000000 		.4byte	0x30
 596 0128 02       		.byte	0x2
 597 0129 23       		.byte	0x23
 598 012a 00       		.uleb128 0
 599 012b 0D       		.uleb128 0xd
 600 012c DC040000 		.4byte	.LASF22
 601 0130 04       		.byte	0x4
 602 0131 AA       		.byte	0xaa
 603 0132 E6000000 		.4byte	0xe6
 604 0136 02       		.byte	0x2
 605 0137 23       		.byte	0x23
 606 0138 04       		.uleb128 0x4
 607 0139 00       		.byte	0
 608 013a 04       		.uleb128 0x4
 609 013b 5A040000 		.4byte	.LASF23
 610 013f 04       		.byte	0x4
 611 0140 AB       		.byte	0xab
 612 0141 15010000 		.4byte	0x115
 613 0145 04       		.uleb128 0x4
 614 0146 FA050000 		.4byte	.LASF24
 615 014a 04       		.byte	0x4
 616 014b AF       		.byte	0xaf
 617 014c AD000000 		.4byte	0xad
 618 0150 0E       		.uleb128 0xe
 619 0151 04       		.byte	0x4
 620 0152 05       		.uleb128 0x5
 621 0153 04       		.byte	0x4
 622 0154 58010000 		.4byte	0x158
 623 0158 02       		.uleb128 0x2
 624 0159 01       		.byte	0x1
 625 015a 08       		.byte	0x8
 626 015b 0F050000 		.4byte	.LASF25
 627 015f 0F       		.uleb128 0xf
 628 0160 58010000 		.4byte	0x158
 629 0164 04       		.uleb128 0x4
 630 0165 87050000 		.4byte	.LASF26
 631 0169 06       		.byte	0x6
 632 016a 16       		.byte	0x16
 633 016b 9F000000 		.4byte	0x9f
 634 016f 10       		.uleb128 0x10
 635 0170 CE010000 		.4byte	.LASF31
 636 0174 18       		.byte	0x18
 637 0175 06       		.byte	0x6
 638 0176 2F       		.byte	0x2f
 639 0177 CE010000 		.4byte	0x1ce
 640 017b 0D       		.uleb128 0xd
 641 017c 53050000 		.4byte	.LASF27
ARM GAS  C:\Users\EBANO_~1\AppData\Local\Temp\ccn772Xo.s 			page 14


 642 0180 06       		.byte	0x6
 643 0181 31       		.byte	0x31
 644 0182 CE010000 		.4byte	0x1ce
 645 0186 02       		.byte	0x2
 646 0187 23       		.byte	0x23
 647 0188 00       		.uleb128 0
 648 0189 11       		.uleb128 0x11
 649 018a 5F6B00   		.ascii	"_k\000"
 650 018d 06       		.byte	0x6
 651 018e 32       		.byte	0x32
 652 018f 30000000 		.4byte	0x30
 653 0193 02       		.byte	0x2
 654 0194 23       		.byte	0x23
 655 0195 04       		.uleb128 0x4
 656 0196 0D       		.uleb128 0xd
 657 0197 B8040000 		.4byte	.LASF28
 658 019b 06       		.byte	0x6
 659 019c 32       		.byte	0x32
 660 019d 30000000 		.4byte	0x30
 661 01a1 02       		.byte	0x2
 662 01a2 23       		.byte	0x23
 663 01a3 08       		.uleb128 0x8
 664 01a4 0D       		.uleb128 0xd
 665 01a5 B4010000 		.4byte	.LASF29
 666 01a9 06       		.byte	0x6
 667 01aa 32       		.byte	0x32
 668 01ab 30000000 		.4byte	0x30
 669 01af 02       		.byte	0x2
 670 01b0 23       		.byte	0x23
 671 01b1 0C       		.uleb128 0xc
 672 01b2 0D       		.uleb128 0xd
 673 01b3 D3050000 		.4byte	.LASF30
 674 01b7 06       		.byte	0x6
 675 01b8 32       		.byte	0x32
 676 01b9 30000000 		.4byte	0x30
 677 01bd 02       		.byte	0x2
 678 01be 23       		.byte	0x23
 679 01bf 10       		.uleb128 0x10
 680 01c0 11       		.uleb128 0x11
 681 01c1 5F7800   		.ascii	"_x\000"
 682 01c4 06       		.byte	0x6
 683 01c5 33       		.byte	0x33
 684 01c6 D4010000 		.4byte	0x1d4
 685 01ca 02       		.byte	0x2
 686 01cb 23       		.byte	0x23
 687 01cc 14       		.uleb128 0x14
 688 01cd 00       		.byte	0
 689 01ce 05       		.uleb128 0x5
 690 01cf 04       		.byte	0x4
 691 01d0 6F010000 		.4byte	0x16f
 692 01d4 0A       		.uleb128 0xa
 693 01d5 64010000 		.4byte	0x164
 694 01d9 E4010000 		.4byte	0x1e4
 695 01dd 0B       		.uleb128 0xb
 696 01de 29000000 		.4byte	0x29
 697 01e2 00       		.byte	0
 698 01e3 00       		.byte	0
ARM GAS  C:\Users\EBANO_~1\AppData\Local\Temp\ccn772Xo.s 			page 15


 699 01e4 10       		.uleb128 0x10
 700 01e5 F0010000 		.4byte	.LASF32
 701 01e9 24       		.byte	0x24
 702 01ea 06       		.byte	0x6
 703 01eb 37       		.byte	0x37
 704 01ec 6F020000 		.4byte	0x26f
 705 01f0 0D       		.uleb128 0xd
 706 01f1 CB000000 		.4byte	.LASF33
 707 01f5 06       		.byte	0x6
 708 01f6 39       		.byte	0x39
 709 01f7 30000000 		.4byte	0x30
 710 01fb 02       		.byte	0x2
 711 01fc 23       		.byte	0x23
 712 01fd 00       		.uleb128 0
 713 01fe 0D       		.uleb128 0xd
 714 01ff 9E060000 		.4byte	.LASF34
 715 0203 06       		.byte	0x6
 716 0204 3A       		.byte	0x3a
 717 0205 30000000 		.4byte	0x30
 718 0209 02       		.byte	0x2
 719 020a 23       		.byte	0x23
 720 020b 04       		.uleb128 0x4
 721 020c 0D       		.uleb128 0xd
 722 020d FA000000 		.4byte	.LASF35
 723 0211 06       		.byte	0x6
 724 0212 3B       		.byte	0x3b
 725 0213 30000000 		.4byte	0x30
 726 0217 02       		.byte	0x2
 727 0218 23       		.byte	0x23
 728 0219 08       		.uleb128 0x8
 729 021a 0D       		.uleb128 0xd
 730 021b BF060000 		.4byte	.LASF36
 731 021f 06       		.byte	0x6
 732 0220 3C       		.byte	0x3c
 733 0221 30000000 		.4byte	0x30
 734 0225 02       		.byte	0x2
 735 0226 23       		.byte	0x23
 736 0227 0C       		.uleb128 0xc
 737 0228 0D       		.uleb128 0xd
 738 0229 21030000 		.4byte	.LASF37
 739 022d 06       		.byte	0x6
 740 022e 3D       		.byte	0x3d
 741 022f 30000000 		.4byte	0x30
 742 0233 02       		.byte	0x2
 743 0234 23       		.byte	0x23
 744 0235 10       		.uleb128 0x10
 745 0236 0D       		.uleb128 0xd
 746 0237 9D020000 		.4byte	.LASF38
 747 023b 06       		.byte	0x6
 748 023c 3E       		.byte	0x3e
 749 023d 30000000 		.4byte	0x30
 750 0241 02       		.byte	0x2
 751 0242 23       		.byte	0x23
 752 0243 14       		.uleb128 0x14
 753 0244 0D       		.uleb128 0xd
 754 0245 EA040000 		.4byte	.LASF39
 755 0249 06       		.byte	0x6
ARM GAS  C:\Users\EBANO_~1\AppData\Local\Temp\ccn772Xo.s 			page 16


 756 024a 3F       		.byte	0x3f
 757 024b 30000000 		.4byte	0x30
 758 024f 02       		.byte	0x2
 759 0250 23       		.byte	0x23
 760 0251 18       		.uleb128 0x18
 761 0252 0D       		.uleb128 0xd
 762 0253 32040000 		.4byte	.LASF40
 763 0257 06       		.byte	0x6
 764 0258 40       		.byte	0x40
 765 0259 30000000 		.4byte	0x30
 766 025d 02       		.byte	0x2
 767 025e 23       		.byte	0x23
 768 025f 1C       		.uleb128 0x1c
 769 0260 0D       		.uleb128 0xd
 770 0261 84060000 		.4byte	.LASF41
 771 0265 06       		.byte	0x6
 772 0266 41       		.byte	0x41
 773 0267 30000000 		.4byte	0x30
 774 026b 02       		.byte	0x2
 775 026c 23       		.byte	0x23
 776 026d 20       		.uleb128 0x20
 777 026e 00       		.byte	0
 778 026f 12       		.uleb128 0x12
 779 0270 09010000 		.4byte	.LASF42
 780 0274 0801     		.2byte	0x108
 781 0276 06       		.byte	0x6
 782 0277 4A       		.byte	0x4a
 783 0278 B8020000 		.4byte	0x2b8
 784 027c 0D       		.uleb128 0xd
 785 027d 16000000 		.4byte	.LASF43
 786 0281 06       		.byte	0x6
 787 0282 4B       		.byte	0x4b
 788 0283 B8020000 		.4byte	0x2b8
 789 0287 02       		.byte	0x2
 790 0288 23       		.byte	0x23
 791 0289 00       		.uleb128 0
 792 028a 0D       		.uleb128 0xd
 793 028b 00000000 		.4byte	.LASF44
 794 028f 06       		.byte	0x6
 795 0290 4C       		.byte	0x4c
 796 0291 B8020000 		.4byte	0x2b8
 797 0295 03       		.byte	0x3
 798 0296 23       		.byte	0x23
 799 0297 8001     		.uleb128 0x80
 800 0299 0D       		.uleb128 0xd
 801 029a 66050000 		.4byte	.LASF45
 802 029e 06       		.byte	0x6
 803 029f 4E       		.byte	0x4e
 804 02a0 64010000 		.4byte	0x164
 805 02a4 03       		.byte	0x3
 806 02a5 23       		.byte	0x23
 807 02a6 8002     		.uleb128 0x100
 808 02a8 0D       		.uleb128 0xd
 809 02a9 37010000 		.4byte	.LASF46
 810 02ad 06       		.byte	0x6
 811 02ae 51       		.byte	0x51
 812 02af 64010000 		.4byte	0x164
ARM GAS  C:\Users\EBANO_~1\AppData\Local\Temp\ccn772Xo.s 			page 17


 813 02b3 03       		.byte	0x3
 814 02b4 23       		.byte	0x23
 815 02b5 8402     		.uleb128 0x104
 816 02b7 00       		.byte	0
 817 02b8 0A       		.uleb128 0xa
 818 02b9 50010000 		.4byte	0x150
 819 02bd C8020000 		.4byte	0x2c8
 820 02c1 0B       		.uleb128 0xb
 821 02c2 29000000 		.4byte	0x29
 822 02c6 1F       		.byte	0x1f
 823 02c7 00       		.byte	0
 824 02c8 12       		.uleb128 0x12
 825 02c9 2A030000 		.4byte	.LASF47
 826 02cd 9001     		.2byte	0x190
 827 02cf 06       		.byte	0x6
 828 02d0 5D       		.byte	0x5d
 829 02d1 0F030000 		.4byte	0x30f
 830 02d5 0D       		.uleb128 0xd
 831 02d6 53050000 		.4byte	.LASF27
 832 02da 06       		.byte	0x6
 833 02db 5E       		.byte	0x5e
 834 02dc 0F030000 		.4byte	0x30f
 835 02e0 02       		.byte	0x2
 836 02e1 23       		.byte	0x23
 837 02e2 00       		.uleb128 0
 838 02e3 0D       		.uleb128 0xd
 839 02e4 88040000 		.4byte	.LASF48
 840 02e8 06       		.byte	0x6
 841 02e9 5F       		.byte	0x5f
 842 02ea 30000000 		.4byte	0x30
 843 02ee 02       		.byte	0x2
 844 02ef 23       		.byte	0x23
 845 02f0 04       		.uleb128 0x4
 846 02f1 0D       		.uleb128 0xd
 847 02f2 A4010000 		.4byte	.LASF49
 848 02f6 06       		.byte	0x6
 849 02f7 61       		.byte	0x61
 850 02f8 15030000 		.4byte	0x315
 851 02fc 02       		.byte	0x2
 852 02fd 23       		.byte	0x23
 853 02fe 08       		.uleb128 0x8
 854 02ff 0D       		.uleb128 0xd
 855 0300 09010000 		.4byte	.LASF42
 856 0304 06       		.byte	0x6
 857 0305 62       		.byte	0x62
 858 0306 6F020000 		.4byte	0x26f
 859 030a 03       		.byte	0x3
 860 030b 23       		.byte	0x23
 861 030c 8801     		.uleb128 0x88
 862 030e 00       		.byte	0
 863 030f 05       		.uleb128 0x5
 864 0310 04       		.byte	0x4
 865 0311 C8020000 		.4byte	0x2c8
 866 0315 0A       		.uleb128 0xa
 867 0316 25030000 		.4byte	0x325
 868 031a 25030000 		.4byte	0x325
 869 031e 0B       		.uleb128 0xb
ARM GAS  C:\Users\EBANO_~1\AppData\Local\Temp\ccn772Xo.s 			page 18


 870 031f 29000000 		.4byte	0x29
 871 0323 1F       		.byte	0x1f
 872 0324 00       		.byte	0
 873 0325 05       		.uleb128 0x5
 874 0326 04       		.byte	0x4
 875 0327 2B030000 		.4byte	0x32b
 876 032b 13       		.uleb128 0x13
 877 032c 01       		.byte	0x1
 878 032d 10       		.uleb128 0x10
 879 032e 44040000 		.4byte	.LASF50
 880 0332 08       		.byte	0x8
 881 0333 06       		.byte	0x6
 882 0334 75       		.byte	0x75
 883 0335 56030000 		.4byte	0x356
 884 0339 0D       		.uleb128 0xd
 885 033a F4000000 		.4byte	.LASF51
 886 033e 06       		.byte	0x6
 887 033f 76       		.byte	0x76
 888 0340 56030000 		.4byte	0x356
 889 0344 02       		.byte	0x2
 890 0345 23       		.byte	0x23
 891 0346 00       		.uleb128 0
 892 0347 0D       		.uleb128 0xd
 893 0348 1D050000 		.4byte	.LASF52
 894 034c 06       		.byte	0x6
 895 034d 77       		.byte	0x77
 896 034e 30000000 		.4byte	0x30
 897 0352 02       		.byte	0x2
 898 0353 23       		.byte	0x23
 899 0354 04       		.uleb128 0x4
 900 0355 00       		.byte	0
 901 0356 05       		.uleb128 0x5
 902 0357 04       		.byte	0x4
 903 0358 62000000 		.4byte	0x62
 904 035c 10       		.uleb128 0x10
 905 035d 65040000 		.4byte	.LASF53
 906 0361 68       		.byte	0x68
 907 0362 06       		.byte	0x6
 908 0363 B5       		.byte	0xb5
 909 0364 B6040000 		.4byte	0x4b6
 910 0368 11       		.uleb128 0x11
 911 0369 5F7000   		.ascii	"_p\000"
 912 036c 06       		.byte	0x6
 913 036d B6       		.byte	0xb6
 914 036e 56030000 		.4byte	0x356
 915 0372 02       		.byte	0x2
 916 0373 23       		.byte	0x23
 917 0374 00       		.uleb128 0
 918 0375 11       		.uleb128 0x11
 919 0376 5F7200   		.ascii	"_r\000"
 920 0379 06       		.byte	0x6
 921 037a B7       		.byte	0xb7
 922 037b 30000000 		.4byte	0x30
 923 037f 02       		.byte	0x2
 924 0380 23       		.byte	0x23
 925 0381 04       		.uleb128 0x4
 926 0382 11       		.uleb128 0x11
ARM GAS  C:\Users\EBANO_~1\AppData\Local\Temp\ccn772Xo.s 			page 19


 927 0383 5F7700   		.ascii	"_w\000"
 928 0386 06       		.byte	0x6
 929 0387 B8       		.byte	0xb8
 930 0388 30000000 		.4byte	0x30
 931 038c 02       		.byte	0x2
 932 038d 23       		.byte	0x23
 933 038e 08       		.uleb128 0x8
 934 038f 0D       		.uleb128 0xd
 935 0390 30010000 		.4byte	.LASF54
 936 0394 06       		.byte	0x6
 937 0395 B9       		.byte	0xb9
 938 0396 69000000 		.4byte	0x69
 939 039a 02       		.byte	0x2
 940 039b 23       		.byte	0x23
 941 039c 0C       		.uleb128 0xc
 942 039d 0D       		.uleb128 0xd
 943 039e 33020000 		.4byte	.LASF55
 944 03a2 06       		.byte	0x6
 945 03a3 BA       		.byte	0xba
 946 03a4 69000000 		.4byte	0x69
 947 03a8 02       		.byte	0x2
 948 03a9 23       		.byte	0x23
 949 03aa 0E       		.uleb128 0xe
 950 03ab 11       		.uleb128 0x11
 951 03ac 5F626600 		.ascii	"_bf\000"
 952 03b0 06       		.byte	0x6
 953 03b1 BB       		.byte	0xbb
 954 03b2 2D030000 		.4byte	0x32d
 955 03b6 02       		.byte	0x2
 956 03b7 23       		.byte	0x23
 957 03b8 10       		.uleb128 0x10
 958 03b9 0D       		.uleb128 0xd
 959 03ba 92000000 		.4byte	.LASF56
 960 03be 06       		.byte	0x6
 961 03bf BC       		.byte	0xbc
 962 03c0 30000000 		.4byte	0x30
 963 03c4 02       		.byte	0x2
 964 03c5 23       		.byte	0x23
 965 03c6 18       		.uleb128 0x18
 966 03c7 0D       		.uleb128 0xd
 967 03c8 17010000 		.4byte	.LASF57
 968 03cc 06       		.byte	0x6
 969 03cd C3       		.byte	0xc3
 970 03ce 50010000 		.4byte	0x150
 971 03d2 02       		.byte	0x2
 972 03d3 23       		.byte	0x23
 973 03d4 1C       		.uleb128 0x1c
 974 03d5 0D       		.uleb128 0xd
 975 03d6 E4010000 		.4byte	.LASF58
 976 03da 06       		.byte	0x6
 977 03db C5       		.byte	0xc5
 978 03dc 3E060000 		.4byte	0x63e
 979 03e0 02       		.byte	0x2
 980 03e1 23       		.byte	0x23
 981 03e2 20       		.uleb128 0x20
 982 03e3 0D       		.uleb128 0xd
 983 03e4 96020000 		.4byte	.LASF59
ARM GAS  C:\Users\EBANO_~1\AppData\Local\Temp\ccn772Xo.s 			page 20


 984 03e8 06       		.byte	0x6
 985 03e9 C7       		.byte	0xc7
 986 03ea 69060000 		.4byte	0x669
 987 03ee 02       		.byte	0x2
 988 03ef 23       		.byte	0x23
 989 03f0 24       		.uleb128 0x24
 990 03f1 0D       		.uleb128 0xd
 991 03f2 E4040000 		.4byte	.LASF60
 992 03f6 06       		.byte	0x6
 993 03f7 CA       		.byte	0xca
 994 03f8 8E060000 		.4byte	0x68e
 995 03fc 02       		.byte	0x2
 996 03fd 23       		.byte	0x23
 997 03fe 28       		.uleb128 0x28
 998 03ff 0D       		.uleb128 0xd
 999 0400 DB000000 		.4byte	.LASF61
 1000 0404 06       		.byte	0x6
 1001 0405 CB       		.byte	0xcb
 1002 0406 A9060000 		.4byte	0x6a9
 1003 040a 02       		.byte	0x2
 1004 040b 23       		.byte	0x23
 1005 040c 2C       		.uleb128 0x2c
 1006 040d 11       		.uleb128 0x11
 1007 040e 5F756200 		.ascii	"_ub\000"
 1008 0412 06       		.byte	0x6
 1009 0413 CE       		.byte	0xce
 1010 0414 2D030000 		.4byte	0x32d
 1011 0418 02       		.byte	0x2
 1012 0419 23       		.byte	0x23
 1013 041a 30       		.uleb128 0x30
 1014 041b 11       		.uleb128 0x11
 1015 041c 5F757000 		.ascii	"_up\000"
 1016 0420 06       		.byte	0x6
 1017 0421 CF       		.byte	0xcf
 1018 0422 56030000 		.4byte	0x356
 1019 0426 02       		.byte	0x2
 1020 0427 23       		.byte	0x23
 1021 0428 38       		.uleb128 0x38
 1022 0429 11       		.uleb128 0x11
 1023 042a 5F757200 		.ascii	"_ur\000"
 1024 042e 06       		.byte	0x6
 1025 042f D0       		.byte	0xd0
 1026 0430 30000000 		.4byte	0x30
 1027 0434 02       		.byte	0x2
 1028 0435 23       		.byte	0x23
 1029 0436 3C       		.uleb128 0x3c
 1030 0437 0D       		.uleb128 0xd
 1031 0438 EE000000 		.4byte	.LASF62
 1032 043c 06       		.byte	0x6
 1033 043d D3       		.byte	0xd3
 1034 043e AF060000 		.4byte	0x6af
 1035 0442 02       		.byte	0x2
 1036 0443 23       		.byte	0x23
 1037 0444 40       		.uleb128 0x40
 1038 0445 0D       		.uleb128 0xd
 1039 0446 76060000 		.4byte	.LASF63
 1040 044a 06       		.byte	0x6
ARM GAS  C:\Users\EBANO_~1\AppData\Local\Temp\ccn772Xo.s 			page 21


 1041 044b D4       		.byte	0xd4
 1042 044c BF060000 		.4byte	0x6bf
 1043 0450 02       		.byte	0x2
 1044 0451 23       		.byte	0x23
 1045 0452 43       		.uleb128 0x43
 1046 0453 11       		.uleb128 0x11
 1047 0454 5F6C6200 		.ascii	"_lb\000"
 1048 0458 06       		.byte	0x6
 1049 0459 D7       		.byte	0xd7
 1050 045a 2D030000 		.4byte	0x32d
 1051 045e 02       		.byte	0x2
 1052 045f 23       		.byte	0x23
 1053 0460 44       		.uleb128 0x44
 1054 0461 0D       		.uleb128 0xd
 1055 0462 14050000 		.4byte	.LASF64
 1056 0466 06       		.byte	0x6
 1057 0467 DA       		.byte	0xda
 1058 0468 30000000 		.4byte	0x30
 1059 046c 02       		.byte	0x2
 1060 046d 23       		.byte	0x23
 1061 046e 4C       		.uleb128 0x4c
 1062 046f 0D       		.uleb128 0xd
 1063 0470 7D010000 		.4byte	.LASF65
 1064 0474 06       		.byte	0x6
 1065 0475 DB       		.byte	0xdb
 1066 0476 C4000000 		.4byte	0xc4
 1067 047a 02       		.byte	0x2
 1068 047b 23       		.byte	0x23
 1069 047c 50       		.uleb128 0x50
 1070 047d 0D       		.uleb128 0xd
 1071 047e 39020000 		.4byte	.LASF66
 1072 0482 06       		.byte	0x6
 1073 0483 DE       		.byte	0xde
 1074 0484 D5040000 		.4byte	0x4d5
 1075 0488 02       		.byte	0x2
 1076 0489 23       		.byte	0x23
 1077 048a 54       		.uleb128 0x54
 1078 048b 0D       		.uleb128 0xd
 1079 048c 8A020000 		.4byte	.LASF67
 1080 0490 06       		.byte	0x6
 1081 0491 E2       		.byte	0xe2
 1082 0492 45010000 		.4byte	0x145
 1083 0496 02       		.byte	0x2
 1084 0497 23       		.byte	0x23
 1085 0498 58       		.uleb128 0x58
 1086 0499 0D       		.uleb128 0xd
 1087 049a 6D040000 		.4byte	.LASF68
 1088 049e 06       		.byte	0x6
 1089 049f E4       		.byte	0xe4
 1090 04a0 3A010000 		.4byte	0x13a
 1091 04a4 02       		.byte	0x2
 1092 04a5 23       		.byte	0x23
 1093 04a6 5C       		.uleb128 0x5c
 1094 04a7 0D       		.uleb128 0xd
 1095 04a8 4B040000 		.4byte	.LASF69
 1096 04ac 06       		.byte	0x6
 1097 04ad E5       		.byte	0xe5
ARM GAS  C:\Users\EBANO_~1\AppData\Local\Temp\ccn772Xo.s 			page 22


 1098 04ae 30000000 		.4byte	0x30
 1099 04b2 02       		.byte	0x2
 1100 04b3 23       		.byte	0x23
 1101 04b4 64       		.uleb128 0x64
 1102 04b5 00       		.byte	0
 1103 04b6 14       		.uleb128 0x14
 1104 04b7 01       		.byte	0x1
 1105 04b8 30000000 		.4byte	0x30
 1106 04bc D5040000 		.4byte	0x4d5
 1107 04c0 15       		.uleb128 0x15
 1108 04c1 D5040000 		.4byte	0x4d5
 1109 04c5 15       		.uleb128 0x15
 1110 04c6 50010000 		.4byte	0x150
 1111 04ca 15       		.uleb128 0x15
 1112 04cb 52010000 		.4byte	0x152
 1113 04cf 15       		.uleb128 0x15
 1114 04d0 30000000 		.4byte	0x30
 1115 04d4 00       		.byte	0
 1116 04d5 05       		.uleb128 0x5
 1117 04d6 04       		.byte	0x4
 1118 04d7 E0040000 		.4byte	0x4e0
 1119 04db 0F       		.uleb128 0xf
 1120 04dc D5040000 		.4byte	0x4d5
 1121 04e0 16       		.uleb128 0x16
 1122 04e1 C0040000 		.4byte	.LASF70
 1123 04e5 2804     		.2byte	0x428
 1124 04e7 06       		.byte	0x6
 1125 04e8 6002     		.2byte	0x260
 1126 04ea 3E060000 		.4byte	0x63e
 1127 04ee 17       		.uleb128 0x17
 1128 04ef 08050000 		.4byte	.LASF71
 1129 04f3 06       		.byte	0x6
 1130 04f4 6202     		.2byte	0x262
 1131 04f6 30000000 		.4byte	0x30
 1132 04fa 02       		.byte	0x2
 1133 04fb 23       		.byte	0x23
 1134 04fc 00       		.uleb128 0
 1135 04fd 17       		.uleb128 0x17
 1136 04fe 3F010000 		.4byte	.LASF72
 1137 0502 06       		.byte	0x6
 1138 0503 6702     		.2byte	0x267
 1139 0505 1C070000 		.4byte	0x71c
 1140 0509 02       		.byte	0x2
 1141 050a 23       		.byte	0x23
 1142 050b 04       		.uleb128 0x4
 1143 050c 17       		.uleb128 0x17
 1144 050d 0C020000 		.4byte	.LASF73
 1145 0511 06       		.byte	0x6
 1146 0512 6702     		.2byte	0x267
 1147 0514 1C070000 		.4byte	0x71c
 1148 0518 02       		.byte	0x2
 1149 0519 23       		.byte	0x23
 1150 051a 08       		.uleb128 0x8
 1151 051b 17       		.uleb128 0x17
 1152 051c C6010000 		.4byte	.LASF74
 1153 0520 06       		.byte	0x6
 1154 0521 6702     		.2byte	0x267
ARM GAS  C:\Users\EBANO_~1\AppData\Local\Temp\ccn772Xo.s 			page 23


 1155 0523 1C070000 		.4byte	0x71c
 1156 0527 02       		.byte	0x2
 1157 0528 23       		.byte	0x23
 1158 0529 0C       		.uleb128 0xc
 1159 052a 17       		.uleb128 0x17
 1160 052b 83040000 		.4byte	.LASF75
 1161 052f 06       		.byte	0x6
 1162 0530 6902     		.2byte	0x269
 1163 0532 30000000 		.4byte	0x30
 1164 0536 02       		.byte	0x2
 1165 0537 23       		.byte	0x23
 1166 0538 10       		.uleb128 0x10
 1167 0539 17       		.uleb128 0x17
 1168 053a 26000000 		.4byte	.LASF76
 1169 053e 06       		.byte	0x6
 1170 053f 6A02     		.2byte	0x26a
 1171 0541 37090000 		.4byte	0x937
 1172 0545 02       		.byte	0x2
 1173 0546 23       		.byte	0x23
 1174 0547 14       		.uleb128 0x14
 1175 0548 17       		.uleb128 0x17
 1176 0549 9F040000 		.4byte	.LASF77
 1177 054d 06       		.byte	0x6
 1178 054e 6D02     		.2byte	0x26d
 1179 0550 30000000 		.4byte	0x30
 1180 0554 02       		.byte	0x2
 1181 0555 23       		.byte	0x23
 1182 0556 30       		.uleb128 0x30
 1183 0557 17       		.uleb128 0x17
 1184 0558 8D040000 		.4byte	.LASF78
 1185 055c 06       		.byte	0x6
 1186 055d 6E02     		.2byte	0x26e
 1187 055f 4D090000 		.4byte	0x94d
 1188 0563 02       		.byte	0x2
 1189 0564 23       		.byte	0x23
 1190 0565 34       		.uleb128 0x34
 1191 0566 17       		.uleb128 0x17
 1192 0567 3C030000 		.4byte	.LASF79
 1193 056b 06       		.byte	0x6
 1194 056c 7002     		.2byte	0x270
 1195 056e 30000000 		.4byte	0x30
 1196 0572 02       		.byte	0x2
 1197 0573 23       		.byte	0x23
 1198 0574 38       		.uleb128 0x38
 1199 0575 17       		.uleb128 0x17
 1200 0576 95040000 		.4byte	.LASF80
 1201 057a 06       		.byte	0x6
 1202 057b 7202     		.2byte	0x272
 1203 057d 5F090000 		.4byte	0x95f
 1204 0581 02       		.byte	0x2
 1205 0582 23       		.byte	0x23
 1206 0583 3C       		.uleb128 0x3c
 1207 0584 17       		.uleb128 0x17
 1208 0585 6F020000 		.4byte	.LASF81
 1209 0589 06       		.byte	0x6
 1210 058a 7502     		.2byte	0x275
 1211 058c CE010000 		.4byte	0x1ce
ARM GAS  C:\Users\EBANO_~1\AppData\Local\Temp\ccn772Xo.s 			page 24


 1212 0590 02       		.byte	0x2
 1213 0591 23       		.byte	0x23
 1214 0592 40       		.uleb128 0x40
 1215 0593 17       		.uleb128 0x17
 1216 0594 46010000 		.4byte	.LASF82
 1217 0598 06       		.byte	0x6
 1218 0599 7602     		.2byte	0x276
 1219 059b 30000000 		.4byte	0x30
 1220 059f 02       		.byte	0x2
 1221 05a0 23       		.byte	0x23
 1222 05a1 44       		.uleb128 0x44
 1223 05a2 17       		.uleb128 0x17
 1224 05a3 BA060000 		.4byte	.LASF83
 1225 05a7 06       		.byte	0x6
 1226 05a8 7702     		.2byte	0x277
 1227 05aa CE010000 		.4byte	0x1ce
 1228 05ae 02       		.byte	0x2
 1229 05af 23       		.byte	0x23
 1230 05b0 48       		.uleb128 0x48
 1231 05b1 17       		.uleb128 0x17
 1232 05b2 5D030000 		.4byte	.LASF84
 1233 05b6 06       		.byte	0x6
 1234 05b7 7802     		.2byte	0x278
 1235 05b9 65090000 		.4byte	0x965
 1236 05bd 02       		.byte	0x2
 1237 05be 23       		.byte	0x23
 1238 05bf 4C       		.uleb128 0x4c
 1239 05c0 17       		.uleb128 0x17
 1240 05c1 19020000 		.4byte	.LASF85
 1241 05c5 06       		.byte	0x6
 1242 05c6 7B02     		.2byte	0x27b
 1243 05c8 30000000 		.4byte	0x30
 1244 05cc 02       		.byte	0x2
 1245 05cd 23       		.byte	0x23
 1246 05ce 50       		.uleb128 0x50
 1247 05cf 17       		.uleb128 0x17
 1248 05d0 75010000 		.4byte	.LASF86
 1249 05d4 06       		.byte	0x6
 1250 05d5 7C02     		.2byte	0x27c
 1251 05d7 52010000 		.4byte	0x152
 1252 05db 02       		.byte	0x2
 1253 05dc 23       		.byte	0x23
 1254 05dd 54       		.uleb128 0x54
 1255 05de 17       		.uleb128 0x17
 1256 05df 85020000 		.4byte	.LASF87
 1257 05e3 06       		.byte	0x6
 1258 05e4 9F02     		.2byte	0x29f
 1259 05e6 15090000 		.4byte	0x915
 1260 05ea 02       		.byte	0x2
 1261 05eb 23       		.byte	0x23
 1262 05ec 58       		.uleb128 0x58
 1263 05ed 17       		.uleb128 0x17
 1264 05ee 2A030000 		.4byte	.LASF47
 1265 05f2 06       		.byte	0x6
 1266 05f3 A302     		.2byte	0x2a3
 1267 05f5 0F030000 		.4byte	0x30f
 1268 05f9 03       		.byte	0x3
ARM GAS  C:\Users\EBANO_~1\AppData\Local\Temp\ccn772Xo.s 			page 25


 1269 05fa 23       		.byte	0x23
 1270 05fb C802     		.uleb128 0x148
 1271 05fd 17       		.uleb128 0x17
 1272 05fe 3B000000 		.4byte	.LASF88
 1273 0602 06       		.byte	0x6
 1274 0603 A402     		.2byte	0x2a4
 1275 0605 C8020000 		.4byte	0x2c8
 1276 0609 03       		.byte	0x3
 1277 060a 23       		.byte	0x23
 1278 060b CC02     		.uleb128 0x14c
 1279 060d 17       		.uleb128 0x17
 1280 060e F0050000 		.4byte	.LASF89
 1281 0612 06       		.byte	0x6
 1282 0613 A802     		.2byte	0x2a8
 1283 0615 77090000 		.4byte	0x977
 1284 0619 03       		.byte	0x3
 1285 061a 23       		.byte	0x23
 1286 061b DC05     		.uleb128 0x2dc
 1287 061d 17       		.uleb128 0x17
 1288 061e 1F010000 		.4byte	.LASF90
 1289 0622 06       		.byte	0x6
 1290 0623 AD02     		.2byte	0x2ad
 1291 0625 DB060000 		.4byte	0x6db
 1292 0629 03       		.byte	0x3
 1293 062a 23       		.byte	0x23
 1294 062b E005     		.uleb128 0x2e0
 1295 062d 17       		.uleb128 0x17
 1296 062e 04010000 		.4byte	.LASF91
 1297 0632 06       		.byte	0x6
 1298 0633 AF02     		.2byte	0x2af
 1299 0635 83090000 		.4byte	0x983
 1300 0639 03       		.byte	0x3
 1301 063a 23       		.byte	0x23
 1302 063b EC05     		.uleb128 0x2ec
 1303 063d 00       		.byte	0
 1304 063e 05       		.uleb128 0x5
 1305 063f 04       		.byte	0x4
 1306 0640 B6040000 		.4byte	0x4b6
 1307 0644 14       		.uleb128 0x14
 1308 0645 01       		.byte	0x1
 1309 0646 30000000 		.4byte	0x30
 1310 064a 63060000 		.4byte	0x663
 1311 064e 15       		.uleb128 0x15
 1312 064f D5040000 		.4byte	0x4d5
 1313 0653 15       		.uleb128 0x15
 1314 0654 50010000 		.4byte	0x150
 1315 0658 15       		.uleb128 0x15
 1316 0659 63060000 		.4byte	0x663
 1317 065d 15       		.uleb128 0x15
 1318 065e 30000000 		.4byte	0x30
 1319 0662 00       		.byte	0
 1320 0663 05       		.uleb128 0x5
 1321 0664 04       		.byte	0x4
 1322 0665 5F010000 		.4byte	0x15f
 1323 0669 05       		.uleb128 0x5
 1324 066a 04       		.byte	0x4
 1325 066b 44060000 		.4byte	0x644
ARM GAS  C:\Users\EBANO_~1\AppData\Local\Temp\ccn772Xo.s 			page 26


 1326 066f 14       		.uleb128 0x14
 1327 0670 01       		.byte	0x1
 1328 0671 CF000000 		.4byte	0xcf
 1329 0675 8E060000 		.4byte	0x68e
 1330 0679 15       		.uleb128 0x15
 1331 067a D5040000 		.4byte	0x4d5
 1332 067e 15       		.uleb128 0x15
 1333 067f 50010000 		.4byte	0x150
 1334 0683 15       		.uleb128 0x15
 1335 0684 CF000000 		.4byte	0xcf
 1336 0688 15       		.uleb128 0x15
 1337 0689 30000000 		.4byte	0x30
 1338 068d 00       		.byte	0
 1339 068e 05       		.uleb128 0x5
 1340 068f 04       		.byte	0x4
 1341 0690 6F060000 		.4byte	0x66f
 1342 0694 14       		.uleb128 0x14
 1343 0695 01       		.byte	0x1
 1344 0696 30000000 		.4byte	0x30
 1345 069a A9060000 		.4byte	0x6a9
 1346 069e 15       		.uleb128 0x15
 1347 069f D5040000 		.4byte	0x4d5
 1348 06a3 15       		.uleb128 0x15
 1349 06a4 50010000 		.4byte	0x150
 1350 06a8 00       		.byte	0
 1351 06a9 05       		.uleb128 0x5
 1352 06aa 04       		.byte	0x4
 1353 06ab 94060000 		.4byte	0x694
 1354 06af 0A       		.uleb128 0xa
 1355 06b0 62000000 		.4byte	0x62
 1356 06b4 BF060000 		.4byte	0x6bf
 1357 06b8 0B       		.uleb128 0xb
 1358 06b9 29000000 		.4byte	0x29
 1359 06bd 02       		.byte	0x2
 1360 06be 00       		.byte	0
 1361 06bf 0A       		.uleb128 0xa
 1362 06c0 62000000 		.4byte	0x62
 1363 06c4 CF060000 		.4byte	0x6cf
 1364 06c8 0B       		.uleb128 0xb
 1365 06c9 29000000 		.4byte	0x29
 1366 06cd 00       		.byte	0
 1367 06ce 00       		.byte	0
 1368 06cf 07       		.uleb128 0x7
 1369 06d0 53040000 		.4byte	.LASF92
 1370 06d4 06       		.byte	0x6
 1371 06d5 1F01     		.2byte	0x11f
 1372 06d7 5C030000 		.4byte	0x35c
 1373 06db 18       		.uleb128 0x18
 1374 06dc D8050000 		.4byte	.LASF93
 1375 06e0 0C       		.byte	0xc
 1376 06e1 06       		.byte	0x6
 1377 06e2 2301     		.2byte	0x123
 1378 06e4 16070000 		.4byte	0x716
 1379 06e8 17       		.uleb128 0x17
 1380 06e9 53050000 		.4byte	.LASF27
 1381 06ed 06       		.byte	0x6
 1382 06ee 2501     		.2byte	0x125
ARM GAS  C:\Users\EBANO_~1\AppData\Local\Temp\ccn772Xo.s 			page 27


 1383 06f0 16070000 		.4byte	0x716
 1384 06f4 02       		.byte	0x2
 1385 06f5 23       		.byte	0x23
 1386 06f6 00       		.uleb128 0
 1387 06f7 17       		.uleb128 0x17
 1388 06f8 3F020000 		.4byte	.LASF94
 1389 06fc 06       		.byte	0x6
 1390 06fd 2601     		.2byte	0x126
 1391 06ff 30000000 		.4byte	0x30
 1392 0703 02       		.byte	0x2
 1393 0704 23       		.byte	0x23
 1394 0705 04       		.uleb128 0x4
 1395 0706 17       		.uleb128 0x17
 1396 0707 23040000 		.4byte	.LASF95
 1397 070b 06       		.byte	0x6
 1398 070c 2701     		.2byte	0x127
 1399 070e 1C070000 		.4byte	0x71c
 1400 0712 02       		.byte	0x2
 1401 0713 23       		.byte	0x23
 1402 0714 08       		.uleb128 0x8
 1403 0715 00       		.byte	0
 1404 0716 05       		.uleb128 0x5
 1405 0717 04       		.byte	0x4
 1406 0718 DB060000 		.4byte	0x6db
 1407 071c 05       		.uleb128 0x5
 1408 071d 04       		.byte	0x4
 1409 071e CF060000 		.4byte	0x6cf
 1410 0722 18       		.uleb128 0x18
 1411 0723 1E000000 		.4byte	.LASF96
 1412 0727 0E       		.byte	0xe
 1413 0728 06       		.byte	0x6
 1414 0729 3F01     		.2byte	0x13f
 1415 072b 5D070000 		.4byte	0x75d
 1416 072f 17       		.uleb128 0x17
 1417 0730 C7040000 		.4byte	.LASF97
 1418 0734 06       		.byte	0x6
 1419 0735 4001     		.2byte	0x140
 1420 0737 5D070000 		.4byte	0x75d
 1421 073b 02       		.byte	0x2
 1422 073c 23       		.byte	0x23
 1423 073d 00       		.uleb128 0
 1424 073e 17       		.uleb128 0x17
 1425 073f 90020000 		.4byte	.LASF98
 1426 0743 06       		.byte	0x6
 1427 0744 4101     		.2byte	0x141
 1428 0746 5D070000 		.4byte	0x75d
 1429 074a 02       		.byte	0x2
 1430 074b 23       		.byte	0x23
 1431 074c 06       		.uleb128 0x6
 1432 074d 17       		.uleb128 0x17
 1433 074e 82050000 		.4byte	.LASF99
 1434 0752 06       		.byte	0x6
 1435 0753 4201     		.2byte	0x142
 1436 0755 7B000000 		.4byte	0x7b
 1437 0759 02       		.byte	0x2
 1438 075a 23       		.byte	0x23
 1439 075b 0C       		.uleb128 0xc
ARM GAS  C:\Users\EBANO_~1\AppData\Local\Temp\ccn772Xo.s 			page 28


 1440 075c 00       		.byte	0
 1441 075d 0A       		.uleb128 0xa
 1442 075e 7B000000 		.4byte	0x7b
 1443 0762 6D070000 		.4byte	0x76d
 1444 0766 0B       		.uleb128 0xb
 1445 0767 29000000 		.4byte	0x29
 1446 076b 02       		.byte	0x2
 1447 076c 00       		.byte	0
 1448 076d 19       		.uleb128 0x19
 1449 076e D0       		.byte	0xd0
 1450 076f 06       		.byte	0x6
 1451 0770 8002     		.2byte	0x280
 1452 0772 9D080000 		.4byte	0x89d
 1453 0776 17       		.uleb128 0x17
 1454 0777 C6050000 		.4byte	.LASF100
 1455 077b 06       		.byte	0x6
 1456 077c 8202     		.2byte	0x282
 1457 077e 29000000 		.4byte	0x29
 1458 0782 02       		.byte	0x2
 1459 0783 23       		.byte	0x23
 1460 0784 00       		.uleb128 0
 1461 0785 17       		.uleb128 0x17
 1462 0786 59050000 		.4byte	.LASF101
 1463 078a 06       		.byte	0x6
 1464 078b 8302     		.2byte	0x283
 1465 078d 52010000 		.4byte	0x152
 1466 0791 02       		.byte	0x2
 1467 0792 23       		.byte	0x23
 1468 0793 04       		.uleb128 0x4
 1469 0794 17       		.uleb128 0x17
 1470 0795 62020000 		.4byte	.LASF102
 1471 0799 06       		.byte	0x6
 1472 079a 8402     		.2byte	0x284
 1473 079c 9D080000 		.4byte	0x89d
 1474 07a0 02       		.byte	0x2
 1475 07a1 23       		.byte	0x23
 1476 07a2 08       		.uleb128 0x8
 1477 07a3 17       		.uleb128 0x17
 1478 07a4 8F060000 		.4byte	.LASF103
 1479 07a8 06       		.byte	0x6
 1480 07a9 8502     		.2byte	0x285
 1481 07ab E4010000 		.4byte	0x1e4
 1482 07af 02       		.byte	0x2
 1483 07b0 23       		.byte	0x23
 1484 07b1 24       		.uleb128 0x24
 1485 07b2 17       		.uleb128 0x17
 1486 07b3 47030000 		.4byte	.LASF104
 1487 07b7 06       		.byte	0x6
 1488 07b8 8602     		.2byte	0x286
 1489 07ba 30000000 		.4byte	0x30
 1490 07be 02       		.byte	0x2
 1491 07bf 23       		.byte	0x23
 1492 07c0 48       		.uleb128 0x48
 1493 07c1 17       		.uleb128 0x17
 1494 07c2 4B020000 		.4byte	.LASF105
 1495 07c6 06       		.byte	0x6
 1496 07c7 8702     		.2byte	0x287
ARM GAS  C:\Users\EBANO_~1\AppData\Local\Temp\ccn772Xo.s 			page 29


 1497 07c9 A6000000 		.4byte	0xa6
 1498 07cd 02       		.byte	0x2
 1499 07ce 23       		.byte	0x23
 1500 07cf 50       		.uleb128 0x50
 1501 07d0 17       		.uleb128 0x17
 1502 07d1 A7060000 		.4byte	.LASF106
 1503 07d5 06       		.byte	0x6
 1504 07d6 8802     		.2byte	0x288
 1505 07d8 22070000 		.4byte	0x722
 1506 07dc 02       		.byte	0x2
 1507 07dd 23       		.byte	0x23
 1508 07de 58       		.uleb128 0x58
 1509 07df 17       		.uleb128 0x17
 1510 07e0 76040000 		.4byte	.LASF107
 1511 07e4 06       		.byte	0x6
 1512 07e5 8902     		.2byte	0x289
 1513 07e7 3A010000 		.4byte	0x13a
 1514 07eb 02       		.byte	0x2
 1515 07ec 23       		.byte	0x23
 1516 07ed 68       		.uleb128 0x68
 1517 07ee 17       		.uleb128 0x17
 1518 07ef AC060000 		.4byte	.LASF108
 1519 07f3 06       		.byte	0x6
 1520 07f4 8A02     		.2byte	0x28a
 1521 07f6 3A010000 		.4byte	0x13a
 1522 07fa 02       		.byte	0x2
 1523 07fb 23       		.byte	0x23
 1524 07fc 70       		.uleb128 0x70
 1525 07fd 17       		.uleb128 0x17
 1526 07fe 67030000 		.4byte	.LASF109
 1527 0802 06       		.byte	0x6
 1528 0803 8B02     		.2byte	0x28b
 1529 0805 3A010000 		.4byte	0x13a
 1530 0809 02       		.byte	0x2
 1531 080a 23       		.byte	0x23
 1532 080b 78       		.uleb128 0x78
 1533 080c 17       		.uleb128 0x17
 1534 080d E6050000 		.4byte	.LASF110
 1535 0811 06       		.byte	0x6
 1536 0812 8C02     		.2byte	0x28c
 1537 0814 AD080000 		.4byte	0x8ad
 1538 0818 03       		.byte	0x3
 1539 0819 23       		.byte	0x23
 1540 081a 8001     		.uleb128 0x80
 1541 081c 17       		.uleb128 0x17
 1542 081d 56020000 		.4byte	.LASF111
 1543 0821 06       		.byte	0x6
 1544 0822 8D02     		.2byte	0x28d
 1545 0824 BD080000 		.4byte	0x8bd
 1546 0828 03       		.byte	0x3
 1547 0829 23       		.byte	0x23
 1548 082a 8801     		.uleb128 0x88
 1549 082c 17       		.uleb128 0x17
 1550 082d 96050000 		.4byte	.LASF112
 1551 0831 06       		.byte	0x6
 1552 0832 8E02     		.2byte	0x28e
 1553 0834 30000000 		.4byte	0x30
ARM GAS  C:\Users\EBANO_~1\AppData\Local\Temp\ccn772Xo.s 			page 30


 1554 0838 03       		.byte	0x3
 1555 0839 23       		.byte	0x23
 1556 083a A001     		.uleb128 0xa0
 1557 083c 17       		.uleb128 0x17
 1558 083d 96010000 		.4byte	.LASF113
 1559 0841 06       		.byte	0x6
 1560 0842 8F02     		.2byte	0x28f
 1561 0844 3A010000 		.4byte	0x13a
 1562 0848 03       		.byte	0x3
 1563 0849 23       		.byte	0x23
 1564 084a A401     		.uleb128 0xa4
 1565 084c 17       		.uleb128 0x17
 1566 084d B7000000 		.4byte	.LASF114
 1567 0851 06       		.byte	0x6
 1568 0852 9002     		.2byte	0x290
 1569 0854 3A010000 		.4byte	0x13a
 1570 0858 03       		.byte	0x3
 1571 0859 23       		.byte	0x23
 1572 085a AC01     		.uleb128 0xac
 1573 085c 17       		.uleb128 0x17
 1574 085d 85010000 		.4byte	.LASF115
 1575 0861 06       		.byte	0x6
 1576 0862 9102     		.2byte	0x291
 1577 0864 3A010000 		.4byte	0x13a
 1578 0868 03       		.byte	0x3
 1579 0869 23       		.byte	0x23
 1580 086a B401     		.uleb128 0xb4
 1581 086c 17       		.uleb128 0x17
 1582 086d 44000000 		.4byte	.LASF116
 1583 0871 06       		.byte	0x6
 1584 0872 9202     		.2byte	0x292
 1585 0874 3A010000 		.4byte	0x13a
 1586 0878 03       		.byte	0x3
 1587 0879 23       		.byte	0x23
 1588 087a BC01     		.uleb128 0xbc
 1589 087c 17       		.uleb128 0x17
 1590 087d 53000000 		.4byte	.LASF117
 1591 0881 06       		.byte	0x6
 1592 0882 9302     		.2byte	0x293
 1593 0884 3A010000 		.4byte	0x13a
 1594 0888 03       		.byte	0x3
 1595 0889 23       		.byte	0x23
 1596 088a C401     		.uleb128 0xc4
 1597 088c 17       		.uleb128 0x17
 1598 088d 29040000 		.4byte	.LASF118
 1599 0891 06       		.byte	0x6
 1600 0892 9402     		.2byte	0x294
 1601 0894 30000000 		.4byte	0x30
 1602 0898 03       		.byte	0x3
 1603 0899 23       		.byte	0x23
 1604 089a CC01     		.uleb128 0xcc
 1605 089c 00       		.byte	0
 1606 089d 0A       		.uleb128 0xa
 1607 089e 58010000 		.4byte	0x158
 1608 08a2 AD080000 		.4byte	0x8ad
 1609 08a6 0B       		.uleb128 0xb
 1610 08a7 29000000 		.4byte	0x29
ARM GAS  C:\Users\EBANO_~1\AppData\Local\Temp\ccn772Xo.s 			page 31


 1611 08ab 19       		.byte	0x19
 1612 08ac 00       		.byte	0
 1613 08ad 0A       		.uleb128 0xa
 1614 08ae 58010000 		.4byte	0x158
 1615 08b2 BD080000 		.4byte	0x8bd
 1616 08b6 0B       		.uleb128 0xb
 1617 08b7 29000000 		.4byte	0x29
 1618 08bb 07       		.byte	0x7
 1619 08bc 00       		.byte	0
 1620 08bd 0A       		.uleb128 0xa
 1621 08be 58010000 		.4byte	0x158
 1622 08c2 CD080000 		.4byte	0x8cd
 1623 08c6 0B       		.uleb128 0xb
 1624 08c7 29000000 		.4byte	0x29
 1625 08cb 17       		.byte	0x17
 1626 08cc 00       		.byte	0
 1627 08cd 19       		.uleb128 0x19
 1628 08ce F0       		.byte	0xf0
 1629 08cf 06       		.byte	0x6
 1630 08d0 9902     		.2byte	0x299
 1631 08d2 F5080000 		.4byte	0x8f5
 1632 08d6 17       		.uleb128 0x17
 1633 08d7 1A030000 		.4byte	.LASF119
 1634 08db 06       		.byte	0x6
 1635 08dc 9C02     		.2byte	0x29c
 1636 08de F5080000 		.4byte	0x8f5
 1637 08e2 02       		.byte	0x2
 1638 08e3 23       		.byte	0x23
 1639 08e4 00       		.uleb128 0
 1640 08e5 17       		.uleb128 0x17
 1641 08e6 A7020000 		.4byte	.LASF120
 1642 08ea 06       		.byte	0x6
 1643 08eb 9D02     		.2byte	0x29d
 1644 08ed 05090000 		.4byte	0x905
 1645 08f1 02       		.byte	0x2
 1646 08f2 23       		.byte	0x23
 1647 08f3 78       		.uleb128 0x78
 1648 08f4 00       		.byte	0
 1649 08f5 0A       		.uleb128 0xa
 1650 08f6 56030000 		.4byte	0x356
 1651 08fa 05090000 		.4byte	0x905
 1652 08fe 0B       		.uleb128 0xb
 1653 08ff 29000000 		.4byte	0x29
 1654 0903 1D       		.byte	0x1d
 1655 0904 00       		.byte	0
 1656 0905 0A       		.uleb128 0xa
 1657 0906 29000000 		.4byte	0x29
 1658 090a 15090000 		.4byte	0x915
 1659 090e 0B       		.uleb128 0xb
 1660 090f 29000000 		.4byte	0x29
 1661 0913 1D       		.byte	0x1d
 1662 0914 00       		.byte	0
 1663 0915 1A       		.uleb128 0x1a
 1664 0916 F0       		.byte	0xf0
 1665 0917 06       		.byte	0x6
 1666 0918 7E02     		.2byte	0x27e
 1667 091a 37090000 		.4byte	0x937
ARM GAS  C:\Users\EBANO_~1\AppData\Local\Temp\ccn772Xo.s 			page 32


 1668 091e 1B       		.uleb128 0x1b
 1669 091f C0040000 		.4byte	.LASF70
 1670 0923 06       		.byte	0x6
 1671 0924 9502     		.2byte	0x295
 1672 0926 6D070000 		.4byte	0x76d
 1673 092a 1B       		.uleb128 0x1b
 1674 092b 7C060000 		.4byte	.LASF121
 1675 092f 06       		.byte	0x6
 1676 0930 9E02     		.2byte	0x29e
 1677 0932 CD080000 		.4byte	0x8cd
 1678 0936 00       		.byte	0
 1679 0937 0A       		.uleb128 0xa
 1680 0938 58010000 		.4byte	0x158
 1681 093c 47090000 		.4byte	0x947
 1682 0940 0B       		.uleb128 0xb
 1683 0941 29000000 		.4byte	0x29
 1684 0945 18       		.byte	0x18
 1685 0946 00       		.byte	0
 1686 0947 06       		.uleb128 0x6
 1687 0948 A3000000 		.4byte	.LASF123
 1688 094c 01       		.byte	0x1
 1689 094d 05       		.uleb128 0x5
 1690 094e 04       		.byte	0x4
 1691 094f 47090000 		.4byte	0x947
 1692 0953 1C       		.uleb128 0x1c
 1693 0954 01       		.byte	0x1
 1694 0955 5F090000 		.4byte	0x95f
 1695 0959 15       		.uleb128 0x15
 1696 095a D5040000 		.4byte	0x4d5
 1697 095e 00       		.byte	0
 1698 095f 05       		.uleb128 0x5
 1699 0960 04       		.byte	0x4
 1700 0961 53090000 		.4byte	0x953
 1701 0965 05       		.uleb128 0x5
 1702 0966 04       		.byte	0x4
 1703 0967 CE010000 		.4byte	0x1ce
 1704 096b 1C       		.uleb128 0x1c
 1705 096c 01       		.byte	0x1
 1706 096d 77090000 		.4byte	0x977
 1707 0971 15       		.uleb128 0x15
 1708 0972 30000000 		.4byte	0x30
 1709 0976 00       		.byte	0
 1710 0977 05       		.uleb128 0x5
 1711 0978 04       		.byte	0x4
 1712 0979 7D090000 		.4byte	0x97d
 1713 097d 05       		.uleb128 0x5
 1714 097e 04       		.byte	0x4
 1715 097f 6B090000 		.4byte	0x96b
 1716 0983 0A       		.uleb128 0xa
 1717 0984 CF060000 		.4byte	0x6cf
 1718 0988 93090000 		.4byte	0x993
 1719 098c 0B       		.uleb128 0xb
 1720 098d 29000000 		.4byte	0x29
 1721 0991 02       		.byte	0x2
 1722 0992 00       		.byte	0
 1723 0993 1D       		.uleb128 0x1d
 1724 0994 BA010000 		.4byte	.LASF124
ARM GAS  C:\Users\EBANO_~1\AppData\Local\Temp\ccn772Xo.s 			page 33


 1725 0998 06       		.byte	0x6
 1726 0999 2E03     		.2byte	0x32e
 1727 099b D5040000 		.4byte	0x4d5
 1728 099f 01       		.byte	0x1
 1729 09a0 01       		.byte	0x1
 1730 09a1 1D       		.uleb128 0x1d
 1731 09a2 A3050000 		.4byte	.LASF125
 1732 09a6 06       		.byte	0x6
 1733 09a7 2F03     		.2byte	0x32f
 1734 09a9 DB040000 		.4byte	0x4db
 1735 09ad 01       		.byte	0x1
 1736 09ae 01       		.byte	0x1
 1737 09af 1E       		.uleb128 0x1e
 1738 09b0 32030000 		.4byte	.LASF126
 1739 09b4 07       		.byte	0x7
 1740 09b5 63       		.byte	0x63
 1741 09b6 52010000 		.4byte	0x152
 1742 09ba 01       		.byte	0x1
 1743 09bb 01       		.byte	0x1
 1744 09bc 04       		.uleb128 0x4
 1745 09bd 8F050000 		.4byte	.LASF127
 1746 09c1 08       		.byte	0x8
 1747 09c2 14       		.byte	0x14
 1748 09c3 45000000 		.4byte	0x45
 1749 09c7 04       		.uleb128 0x4
 1750 09c8 DE050000 		.4byte	.LASF128
 1751 09cc 08       		.byte	0x8
 1752 09cd 18       		.byte	0x18
 1753 09ce 57000000 		.4byte	0x57
 1754 09d2 0F       		.uleb128 0xf
 1755 09d3 C7090000 		.4byte	0x9c7
 1756 09d7 04       		.uleb128 0x4
 1757 09d8 6C010000 		.4byte	.LASF129
 1758 09dc 08       		.byte	0x8
 1759 09dd 24       		.byte	0x24
 1760 09de 70000000 		.4byte	0x70
 1761 09e2 04       		.uleb128 0x4
 1762 09e3 0D040000 		.4byte	.LASF130
 1763 09e7 08       		.byte	0x8
 1764 09e8 2C       		.byte	0x2c
 1765 09e9 82000000 		.4byte	0x82
 1766 09ed 04       		.uleb128 0x4
 1767 09ee B6050000 		.4byte	.LASF131
 1768 09f2 08       		.byte	0x8
 1769 09f3 30       		.byte	0x30
 1770 09f4 94000000 		.4byte	0x94
 1771 09f8 1E       		.uleb128 0x1e
 1772 09f9 FC010000 		.4byte	.LASF132
 1773 09fd 09       		.byte	0x9
 1774 09fe 4A       		.byte	0x4a
 1775 09ff ED090000 		.4byte	0x9ed
 1776 0a03 01       		.byte	0x1
 1777 0a04 01       		.byte	0x1
 1778 0a05 0A       		.uleb128 0xa
 1779 0a06 D2090000 		.4byte	0x9d2
 1780 0a0a 150A0000 		.4byte	0xa15
 1781 0a0e 0B       		.uleb128 0xb
ARM GAS  C:\Users\EBANO_~1\AppData\Local\Temp\ccn772Xo.s 			page 34


 1782 0a0f 29000000 		.4byte	0x29
 1783 0a13 0F       		.byte	0xf
 1784 0a14 00       		.byte	0
 1785 0a15 0F       		.uleb128 0xf
 1786 0a16 050A0000 		.4byte	0xa05
 1787 0a1a 1E       		.uleb128 0x1e
 1788 0a1b 45050000 		.4byte	.LASF133
 1789 0a1f 09       		.byte	0x9
 1790 0a20 4D       		.byte	0x4d
 1791 0a21 150A0000 		.4byte	0xa15
 1792 0a25 01       		.byte	0x1
 1793 0a26 01       		.byte	0x1
 1794 0a27 0A       		.uleb128 0xa
 1795 0a28 D2090000 		.4byte	0x9d2
 1796 0a2c 370A0000 		.4byte	0xa37
 1797 0a30 0B       		.uleb128 0xb
 1798 0a31 29000000 		.4byte	0x29
 1799 0a35 07       		.byte	0x7
 1800 0a36 00       		.byte	0
 1801 0a37 0F       		.uleb128 0xf
 1802 0a38 270A0000 		.4byte	0xa27
 1803 0a3c 1E       		.uleb128 0x1e
 1804 0a3d D6010000 		.4byte	.LASF134
 1805 0a41 09       		.byte	0x9
 1806 0a42 4E       		.byte	0x4e
 1807 0a43 370A0000 		.4byte	0xa37
 1808 0a47 01       		.byte	0x1
 1809 0a48 01       		.byte	0x1
 1810 0a49 0A       		.uleb128 0xa
 1811 0a4a D2090000 		.4byte	0x9d2
 1812 0a4e 590A0000 		.4byte	0xa59
 1813 0a52 0B       		.uleb128 0xb
 1814 0a53 29000000 		.4byte	0x29
 1815 0a57 08       		.byte	0x8
 1816 0a58 00       		.byte	0
 1817 0a59 0F       		.uleb128 0xf
 1818 0a5a 490A0000 		.4byte	0xa49
 1819 0a5e 1E       		.uleb128 0x1e
 1820 0a5f FF020000 		.4byte	.LASF135
 1821 0a63 09       		.byte	0x9
 1822 0a64 4F       		.byte	0x4f
 1823 0a65 590A0000 		.4byte	0xa59
 1824 0a69 01       		.byte	0x1
 1825 0a6a 01       		.byte	0x1
 1826 0a6b 05       		.uleb128 0x5
 1827 0a6c 04       		.byte	0x4
 1828 0a6d C7090000 		.4byte	0x9c7
 1829 0a71 1F       		.uleb128 0x1f
 1830 0a72 C6000000 		.4byte	.LASF148
 1831 0a76 01       		.byte	0x1
 1832 0a77 1C       		.byte	0x1c
 1833 0a78 ED090000 		.4byte	0x9ed
 1834 0a7c 05       		.byte	0x5
 1835 0a7d 03       		.byte	0x3
 1836 0a7e 00000000 		.4byte	next
 1837 0a82 20       		.uleb128 0x20
 1838 0a83 01       		.byte	0x1
ARM GAS  C:\Users\EBANO_~1\AppData\Local\Temp\ccn772Xo.s 			page 35


 1839 0a84 0B030000 		.4byte	.LASF141
 1840 0a88 01       		.byte	0x1
 1841 0a89 47       		.byte	0x47
 1842 0a8a 01       		.byte	0x1
 1843 0a8b BC090000 		.4byte	0x9bc
 1844 0a8f 00000000 		.4byte	.LFB45
 1845 0a93 18000000 		.4byte	.LFE45
 1846 0a97 02       		.byte	0x2
 1847 0a98 7D       		.byte	0x7d
 1848 0a99 00       		.sleb128 0
 1849 0a9a 01       		.byte	0x1
 1850 0a9b AD0A0000 		.4byte	0xaad
 1851 0a9f 21       		.uleb128 0x21
 1852 0aa0 6100     		.ascii	"a\000"
 1853 0aa2 01       		.byte	0x1
 1854 0aa3 47       		.byte	0x47
 1855 0aa4 C7090000 		.4byte	0x9c7
 1856 0aa8 00000000 		.4byte	.LLST15
 1857 0aac 00       		.byte	0
 1858 0aad 22       		.uleb128 0x22
 1859 0aae 01       		.byte	0x1
 1860 0aaf 3C040000 		.4byte	.LASF138
 1861 0ab3 01       		.byte	0x1
 1862 0ab4 3F       		.byte	0x3f
 1863 0ab5 01       		.byte	0x1
 1864 0ab6 00000000 		.4byte	.LFB44
 1865 0aba 12000000 		.4byte	.LFE44
 1866 0abe 53000000 		.4byte	.LLST11
 1867 0ac2 01       		.byte	0x1
 1868 0ac3 060B0000 		.4byte	0xb06
 1869 0ac7 21       		.uleb128 0x21
 1870 0ac8 64737400 		.ascii	"dst\000"
 1871 0acc 01       		.byte	0x1
 1872 0acd 3F       		.byte	0x3f
 1873 0ace 6B0A0000 		.4byte	0xa6b
 1874 0ad2 73000000 		.4byte	.LLST12
 1875 0ad6 23       		.uleb128 0x23
 1876 0ad7 EA010000 		.4byte	.LASF136
 1877 0adb 01       		.byte	0x1
 1878 0adc 3F       		.byte	0x3f
 1879 0add C7090000 		.4byte	0x9c7
 1880 0ae1 94000000 		.4byte	.LLST13
 1881 0ae5 23       		.uleb128 0x23
 1882 0ae6 46020000 		.4byte	.LASF137
 1883 0aea 01       		.byte	0x1
 1884 0aeb 3F       		.byte	0x3f
 1885 0aec D7090000 		.4byte	0x9d7
 1886 0af0 B5000000 		.4byte	.LLST14
 1887 0af4 24       		.uleb128 0x24
 1888 0af5 10000000 		.4byte	.LVL31
 1889 0af9 2E0C0000 		.4byte	0xc2e
 1890 0afd 25       		.uleb128 0x25
 1891 0afe 01       		.byte	0x1
 1892 0aff 50       		.byte	0x50
 1893 0b00 03       		.byte	0x3
 1894 0b01 F3       		.byte	0xf3
 1895 0b02 01       		.uleb128 0x1
ARM GAS  C:\Users\EBANO_~1\AppData\Local\Temp\ccn772Xo.s 			page 36


 1896 0b03 50       		.byte	0x50
 1897 0b04 00       		.byte	0
 1898 0b05 00       		.byte	0
 1899 0b06 26       		.uleb128 0x26
 1900 0b07 01       		.byte	0x1
 1901 0b08 64010000 		.4byte	.LASF139
 1902 0b0c 01       		.byte	0x1
 1903 0b0d 36       		.byte	0x36
 1904 0b0e 01       		.byte	0x1
 1905 0b0f 00000000 		.4byte	.LFB43
 1906 0b13 1C000000 		.4byte	.LFE43
 1907 0b17 02       		.byte	0x2
 1908 0b18 7D       		.byte	0x7d
 1909 0b19 00       		.sleb128 0
 1910 0b1a 01       		.byte	0x1
 1911 0b1b 4D0B0000 		.4byte	0xb4d
 1912 0b1f 21       		.uleb128 0x21
 1913 0b20 64737400 		.ascii	"dst\000"
 1914 0b24 01       		.byte	0x1
 1915 0b25 36       		.byte	0x36
 1916 0b26 6B0A0000 		.4byte	0xa6b
 1917 0b2a E5000000 		.4byte	.LLST8
 1918 0b2e 21       		.uleb128 0x21
 1919 0b2f 73726300 		.ascii	"src\000"
 1920 0b33 01       		.byte	0x1
 1921 0b34 36       		.byte	0x36
 1922 0b35 4D0B0000 		.4byte	0xb4d
 1923 0b39 03010000 		.4byte	.LLST9
 1924 0b3d 23       		.uleb128 0x23
 1925 0b3e 46020000 		.4byte	.LASF137
 1926 0b42 01       		.byte	0x1
 1927 0b43 36       		.byte	0x36
 1928 0b44 D7090000 		.4byte	0x9d7
 1929 0b48 2E010000 		.4byte	.LLST10
 1930 0b4c 00       		.byte	0
 1931 0b4d 05       		.uleb128 0x5
 1932 0b4e 04       		.byte	0x4
 1933 0b4f D2090000 		.4byte	0x9d2
 1934 0b53 22       		.uleb128 0x22
 1935 0b54 01       		.byte	0x1
 1936 0b55 9B000000 		.4byte	.LASF140
 1937 0b59 01       		.byte	0x1
 1938 0b5a 2E       		.byte	0x2e
 1939 0b5b 01       		.byte	0x1
 1940 0b5c 00000000 		.4byte	.LFB42
 1941 0b60 82000000 		.4byte	.LFE42
 1942 0b64 5A010000 		.4byte	.LLST4
 1943 0b68 01       		.byte	0x1
 1944 0b69 9B0B0000 		.4byte	0xb9b
 1945 0b6d 21       		.uleb128 0x21
 1946 0b6e 64737400 		.ascii	"dst\000"
 1947 0b72 01       		.byte	0x1
 1948 0b73 2E       		.byte	0x2e
 1949 0b74 6B0A0000 		.4byte	0xa6b
 1950 0b78 7A010000 		.4byte	.LLST5
 1951 0b7c 21       		.uleb128 0x21
 1952 0b7d 73726300 		.ascii	"src\000"
ARM GAS  C:\Users\EBANO_~1\AppData\Local\Temp\ccn772Xo.s 			page 37


 1953 0b81 01       		.byte	0x1
 1954 0b82 2E       		.byte	0x2e
 1955 0b83 4D0B0000 		.4byte	0xb4d
 1956 0b87 E1010000 		.4byte	.LLST6
 1957 0b8b 23       		.uleb128 0x23
 1958 0b8c 46020000 		.4byte	.LASF137
 1959 0b90 01       		.byte	0x1
 1960 0b91 2E       		.byte	0x2e
 1961 0b92 D7090000 		.4byte	0x9d7
 1962 0b96 48020000 		.4byte	.LLST7
 1963 0b9a 00       		.byte	0
 1964 0b9b 27       		.uleb128 0x27
 1965 0b9c 01       		.byte	0x1
 1966 0b9d 50010000 		.4byte	.LASF142
 1967 0ba1 01       		.byte	0x1
 1968 0ba2 29       		.byte	0x29
 1969 0ba3 01       		.byte	0x1
 1970 0ba4 E2090000 		.4byte	0x9e2
 1971 0ba8 00000000 		.4byte	.LFB41
 1972 0bac 3C000000 		.4byte	.LFE41
 1973 0bb0 96020000 		.4byte	.LLST1
 1974 0bb4 01       		.byte	0x1
 1975 0bb5 E70B0000 		.4byte	0xbe7
 1976 0bb9 21       		.uleb128 0x21
 1977 0bba 6D696E00 		.ascii	"min\000"
 1978 0bbe 01       		.byte	0x1
 1979 0bbf 29       		.byte	0x29
 1980 0bc0 E2090000 		.4byte	0x9e2
 1981 0bc4 B6020000 		.4byte	.LLST2
 1982 0bc8 21       		.uleb128 0x21
 1983 0bc9 6D617800 		.ascii	"max\000"
 1984 0bcd 01       		.byte	0x1
 1985 0bce 29       		.byte	0x29
 1986 0bcf E2090000 		.4byte	0x9e2
 1987 0bd3 E2020000 		.4byte	.LLST3
 1988 0bd7 28       		.uleb128 0x28
 1989 0bd8 0E0C0000 		.4byte	0xc0e
 1990 0bdc 00000000 		.4byte	.LBB4
 1991 0be0 00000000 		.4byte	.Ldebug_ranges0+0
 1992 0be4 01       		.byte	0x1
 1993 0be5 2B       		.byte	0x2b
 1994 0be6 00       		.byte	0
 1995 0be7 26       		.uleb128 0x26
 1996 0be8 01       		.byte	0x1
 1997 0be9 F8020000 		.4byte	.LASF143
 1998 0bed 01       		.byte	0x1
 1999 0bee 23       		.byte	0x23
 2000 0bef 01       		.byte	0x1
 2001 0bf0 00000000 		.4byte	.LFB40
 2002 0bf4 0C000000 		.4byte	.LFE40
 2003 0bf8 02       		.byte	0x2
 2004 0bf9 7D       		.byte	0x7d
 2005 0bfa 00       		.sleb128 0
 2006 0bfb 01       		.byte	0x1
 2007 0bfc 0E0C0000 		.4byte	0xc0e
 2008 0c00 29       		.uleb128 0x29
 2009 0c01 14020000 		.4byte	.LASF144
ARM GAS  C:\Users\EBANO_~1\AppData\Local\Temp\ccn772Xo.s 			page 38


 2010 0c05 01       		.byte	0x1
 2011 0c06 23       		.byte	0x23
 2012 0c07 ED090000 		.4byte	0x9ed
 2013 0c0b 01       		.byte	0x1
 2014 0c0c 50       		.byte	0x50
 2015 0c0d 00       		.byte	0
 2016 0c0e 2A       		.uleb128 0x2a
 2017 0c0f 01       		.byte	0x1
 2018 0c10 8C000000 		.4byte	.LASF149
 2019 0c14 01       		.byte	0x1
 2020 0c15 1E       		.byte	0x1e
 2021 0c16 01       		.byte	0x1
 2022 0c17 E2090000 		.4byte	0x9e2
 2023 0c1b 01       		.byte	0x1
 2024 0c1c 2B       		.uleb128 0x2b
 2025 0c1d 0E0C0000 		.4byte	0xc0e
 2026 0c21 00000000 		.4byte	.LFB39
 2027 0c25 2C000000 		.4byte	.LFE39
 2028 0c29 0E030000 		.4byte	.LLST0
 2029 0c2d 01       		.byte	0x1
 2030 0c2e 2C       		.uleb128 0x2c
 2031 0c2f 01       		.byte	0x1
 2032 0c30 01       		.byte	0x1
 2033 0c31 BF050000 		.4byte	.LASF150
 2034 0c35 64000000 		.4byte	.LASF151
 2035 0c39 0A       		.byte	0xa
 2036 0c3a 00       		.byte	0
 2037 0c3b BF050000 		.4byte	.LASF150
 2038 0c3f 00       		.byte	0
 2039              		.section	.debug_abbrev,"",%progbits
 2040              	.Ldebug_abbrev0:
 2041 0000 01       		.uleb128 0x1
 2042 0001 11       		.uleb128 0x11
 2043 0002 01       		.byte	0x1
 2044 0003 25       		.uleb128 0x25
 2045 0004 0E       		.uleb128 0xe
 2046 0005 13       		.uleb128 0x13
 2047 0006 0B       		.uleb128 0xb
 2048 0007 03       		.uleb128 0x3
 2049 0008 0E       		.uleb128 0xe
 2050 0009 1B       		.uleb128 0x1b
 2051 000a 0E       		.uleb128 0xe
 2052 000b 55       		.uleb128 0x55
 2053 000c 06       		.uleb128 0x6
 2054 000d 11       		.uleb128 0x11
 2055 000e 01       		.uleb128 0x1
 2056 000f 52       		.uleb128 0x52
 2057 0010 01       		.uleb128 0x1
 2058 0011 10       		.uleb128 0x10
 2059 0012 06       		.uleb128 0x6
 2060 0013 00       		.byte	0
 2061 0014 00       		.byte	0
 2062 0015 02       		.uleb128 0x2
 2063 0016 24       		.uleb128 0x24
 2064 0017 00       		.byte	0
 2065 0018 0B       		.uleb128 0xb
 2066 0019 0B       		.uleb128 0xb
ARM GAS  C:\Users\EBANO_~1\AppData\Local\Temp\ccn772Xo.s 			page 39


 2067 001a 3E       		.uleb128 0x3e
 2068 001b 0B       		.uleb128 0xb
 2069 001c 03       		.uleb128 0x3
 2070 001d 0E       		.uleb128 0xe
 2071 001e 00       		.byte	0
 2072 001f 00       		.byte	0
 2073 0020 03       		.uleb128 0x3
 2074 0021 24       		.uleb128 0x24
 2075 0022 00       		.byte	0
 2076 0023 0B       		.uleb128 0xb
 2077 0024 0B       		.uleb128 0xb
 2078 0025 3E       		.uleb128 0x3e
 2079 0026 0B       		.uleb128 0xb
 2080 0027 03       		.uleb128 0x3
 2081 0028 08       		.uleb128 0x8
 2082 0029 00       		.byte	0
 2083 002a 00       		.byte	0
 2084 002b 04       		.uleb128 0x4
 2085 002c 16       		.uleb128 0x16
 2086 002d 00       		.byte	0
 2087 002e 03       		.uleb128 0x3
 2088 002f 0E       		.uleb128 0xe
 2089 0030 3A       		.uleb128 0x3a
 2090 0031 0B       		.uleb128 0xb
 2091 0032 3B       		.uleb128 0x3b
 2092 0033 0B       		.uleb128 0xb
 2093 0034 49       		.uleb128 0x49
 2094 0035 13       		.uleb128 0x13
 2095 0036 00       		.byte	0
 2096 0037 00       		.byte	0
 2097 0038 05       		.uleb128 0x5
 2098 0039 0F       		.uleb128 0xf
 2099 003a 00       		.byte	0
 2100 003b 0B       		.uleb128 0xb
 2101 003c 0B       		.uleb128 0xb
 2102 003d 49       		.uleb128 0x49
 2103 003e 13       		.uleb128 0x13
 2104 003f 00       		.byte	0
 2105 0040 00       		.byte	0
 2106 0041 06       		.uleb128 0x6
 2107 0042 13       		.uleb128 0x13
 2108 0043 00       		.byte	0
 2109 0044 03       		.uleb128 0x3
 2110 0045 0E       		.uleb128 0xe
 2111 0046 3C       		.uleb128 0x3c
 2112 0047 0C       		.uleb128 0xc
 2113 0048 00       		.byte	0
 2114 0049 00       		.byte	0
 2115 004a 07       		.uleb128 0x7
 2116 004b 16       		.uleb128 0x16
 2117 004c 00       		.byte	0
 2118 004d 03       		.uleb128 0x3
 2119 004e 0E       		.uleb128 0xe
 2120 004f 3A       		.uleb128 0x3a
 2121 0050 0B       		.uleb128 0xb
 2122 0051 3B       		.uleb128 0x3b
 2123 0052 05       		.uleb128 0x5
ARM GAS  C:\Users\EBANO_~1\AppData\Local\Temp\ccn772Xo.s 			page 40


 2124 0053 49       		.uleb128 0x49
 2125 0054 13       		.uleb128 0x13
 2126 0055 00       		.byte	0
 2127 0056 00       		.byte	0
 2128 0057 08       		.uleb128 0x8
 2129 0058 17       		.uleb128 0x17
 2130 0059 01       		.byte	0x1
 2131 005a 0B       		.uleb128 0xb
 2132 005b 0B       		.uleb128 0xb
 2133 005c 3A       		.uleb128 0x3a
 2134 005d 0B       		.uleb128 0xb
 2135 005e 3B       		.uleb128 0x3b
 2136 005f 0B       		.uleb128 0xb
 2137 0060 01       		.uleb128 0x1
 2138 0061 13       		.uleb128 0x13
 2139 0062 00       		.byte	0
 2140 0063 00       		.byte	0
 2141 0064 09       		.uleb128 0x9
 2142 0065 0D       		.uleb128 0xd
 2143 0066 00       		.byte	0
 2144 0067 03       		.uleb128 0x3
 2145 0068 0E       		.uleb128 0xe
 2146 0069 3A       		.uleb128 0x3a
 2147 006a 0B       		.uleb128 0xb
 2148 006b 3B       		.uleb128 0x3b
 2149 006c 0B       		.uleb128 0xb
 2150 006d 49       		.uleb128 0x49
 2151 006e 13       		.uleb128 0x13
 2152 006f 00       		.byte	0
 2153 0070 00       		.byte	0
 2154 0071 0A       		.uleb128 0xa
 2155 0072 01       		.uleb128 0x1
 2156 0073 01       		.byte	0x1
 2157 0074 49       		.uleb128 0x49
 2158 0075 13       		.uleb128 0x13
 2159 0076 01       		.uleb128 0x1
 2160 0077 13       		.uleb128 0x13
 2161 0078 00       		.byte	0
 2162 0079 00       		.byte	0
 2163 007a 0B       		.uleb128 0xb
 2164 007b 21       		.uleb128 0x21
 2165 007c 00       		.byte	0
 2166 007d 49       		.uleb128 0x49
 2167 007e 13       		.uleb128 0x13
 2168 007f 2F       		.uleb128 0x2f
 2169 0080 0B       		.uleb128 0xb
 2170 0081 00       		.byte	0
 2171 0082 00       		.byte	0
 2172 0083 0C       		.uleb128 0xc
 2173 0084 13       		.uleb128 0x13
 2174 0085 01       		.byte	0x1
 2175 0086 0B       		.uleb128 0xb
 2176 0087 0B       		.uleb128 0xb
 2177 0088 3A       		.uleb128 0x3a
 2178 0089 0B       		.uleb128 0xb
 2179 008a 3B       		.uleb128 0x3b
 2180 008b 0B       		.uleb128 0xb
ARM GAS  C:\Users\EBANO_~1\AppData\Local\Temp\ccn772Xo.s 			page 41


 2181 008c 01       		.uleb128 0x1
 2182 008d 13       		.uleb128 0x13
 2183 008e 00       		.byte	0
 2184 008f 00       		.byte	0
 2185 0090 0D       		.uleb128 0xd
 2186 0091 0D       		.uleb128 0xd
 2187 0092 00       		.byte	0
 2188 0093 03       		.uleb128 0x3
 2189 0094 0E       		.uleb128 0xe
 2190 0095 3A       		.uleb128 0x3a
 2191 0096 0B       		.uleb128 0xb
 2192 0097 3B       		.uleb128 0x3b
 2193 0098 0B       		.uleb128 0xb
 2194 0099 49       		.uleb128 0x49
 2195 009a 13       		.uleb128 0x13
 2196 009b 38       		.uleb128 0x38
 2197 009c 0A       		.uleb128 0xa
 2198 009d 00       		.byte	0
 2199 009e 00       		.byte	0
 2200 009f 0E       		.uleb128 0xe
 2201 00a0 0F       		.uleb128 0xf
 2202 00a1 00       		.byte	0
 2203 00a2 0B       		.uleb128 0xb
 2204 00a3 0B       		.uleb128 0xb
 2205 00a4 00       		.byte	0
 2206 00a5 00       		.byte	0
 2207 00a6 0F       		.uleb128 0xf
 2208 00a7 26       		.uleb128 0x26
 2209 00a8 00       		.byte	0
 2210 00a9 49       		.uleb128 0x49
 2211 00aa 13       		.uleb128 0x13
 2212 00ab 00       		.byte	0
 2213 00ac 00       		.byte	0
 2214 00ad 10       		.uleb128 0x10
 2215 00ae 13       		.uleb128 0x13
 2216 00af 01       		.byte	0x1
 2217 00b0 03       		.uleb128 0x3
 2218 00b1 0E       		.uleb128 0xe
 2219 00b2 0B       		.uleb128 0xb
 2220 00b3 0B       		.uleb128 0xb
 2221 00b4 3A       		.uleb128 0x3a
 2222 00b5 0B       		.uleb128 0xb
 2223 00b6 3B       		.uleb128 0x3b
 2224 00b7 0B       		.uleb128 0xb
 2225 00b8 01       		.uleb128 0x1
 2226 00b9 13       		.uleb128 0x13
 2227 00ba 00       		.byte	0
 2228 00bb 00       		.byte	0
 2229 00bc 11       		.uleb128 0x11
 2230 00bd 0D       		.uleb128 0xd
 2231 00be 00       		.byte	0
 2232 00bf 03       		.uleb128 0x3
 2233 00c0 08       		.uleb128 0x8
 2234 00c1 3A       		.uleb128 0x3a
 2235 00c2 0B       		.uleb128 0xb
 2236 00c3 3B       		.uleb128 0x3b
 2237 00c4 0B       		.uleb128 0xb
ARM GAS  C:\Users\EBANO_~1\AppData\Local\Temp\ccn772Xo.s 			page 42


 2238 00c5 49       		.uleb128 0x49
 2239 00c6 13       		.uleb128 0x13
 2240 00c7 38       		.uleb128 0x38
 2241 00c8 0A       		.uleb128 0xa
 2242 00c9 00       		.byte	0
 2243 00ca 00       		.byte	0
 2244 00cb 12       		.uleb128 0x12
 2245 00cc 13       		.uleb128 0x13
 2246 00cd 01       		.byte	0x1
 2247 00ce 03       		.uleb128 0x3
 2248 00cf 0E       		.uleb128 0xe
 2249 00d0 0B       		.uleb128 0xb
 2250 00d1 05       		.uleb128 0x5
 2251 00d2 3A       		.uleb128 0x3a
 2252 00d3 0B       		.uleb128 0xb
 2253 00d4 3B       		.uleb128 0x3b
 2254 00d5 0B       		.uleb128 0xb
 2255 00d6 01       		.uleb128 0x1
 2256 00d7 13       		.uleb128 0x13
 2257 00d8 00       		.byte	0
 2258 00d9 00       		.byte	0
 2259 00da 13       		.uleb128 0x13
 2260 00db 15       		.uleb128 0x15
 2261 00dc 00       		.byte	0
 2262 00dd 27       		.uleb128 0x27
 2263 00de 0C       		.uleb128 0xc
 2264 00df 00       		.byte	0
 2265 00e0 00       		.byte	0
 2266 00e1 14       		.uleb128 0x14
 2267 00e2 15       		.uleb128 0x15
 2268 00e3 01       		.byte	0x1
 2269 00e4 27       		.uleb128 0x27
 2270 00e5 0C       		.uleb128 0xc
 2271 00e6 49       		.uleb128 0x49
 2272 00e7 13       		.uleb128 0x13
 2273 00e8 01       		.uleb128 0x1
 2274 00e9 13       		.uleb128 0x13
 2275 00ea 00       		.byte	0
 2276 00eb 00       		.byte	0
 2277 00ec 15       		.uleb128 0x15
 2278 00ed 05       		.uleb128 0x5
 2279 00ee 00       		.byte	0
 2280 00ef 49       		.uleb128 0x49
 2281 00f0 13       		.uleb128 0x13
 2282 00f1 00       		.byte	0
 2283 00f2 00       		.byte	0
 2284 00f3 16       		.uleb128 0x16
 2285 00f4 13       		.uleb128 0x13
 2286 00f5 01       		.byte	0x1
 2287 00f6 03       		.uleb128 0x3
 2288 00f7 0E       		.uleb128 0xe
 2289 00f8 0B       		.uleb128 0xb
 2290 00f9 05       		.uleb128 0x5
 2291 00fa 3A       		.uleb128 0x3a
 2292 00fb 0B       		.uleb128 0xb
 2293 00fc 3B       		.uleb128 0x3b
 2294 00fd 05       		.uleb128 0x5
ARM GAS  C:\Users\EBANO_~1\AppData\Local\Temp\ccn772Xo.s 			page 43


 2295 00fe 01       		.uleb128 0x1
 2296 00ff 13       		.uleb128 0x13
 2297 0100 00       		.byte	0
 2298 0101 00       		.byte	0
 2299 0102 17       		.uleb128 0x17
 2300 0103 0D       		.uleb128 0xd
 2301 0104 00       		.byte	0
 2302 0105 03       		.uleb128 0x3
 2303 0106 0E       		.uleb128 0xe
 2304 0107 3A       		.uleb128 0x3a
 2305 0108 0B       		.uleb128 0xb
 2306 0109 3B       		.uleb128 0x3b
 2307 010a 05       		.uleb128 0x5
 2308 010b 49       		.uleb128 0x49
 2309 010c 13       		.uleb128 0x13
 2310 010d 38       		.uleb128 0x38
 2311 010e 0A       		.uleb128 0xa
 2312 010f 00       		.byte	0
 2313 0110 00       		.byte	0
 2314 0111 18       		.uleb128 0x18
 2315 0112 13       		.uleb128 0x13
 2316 0113 01       		.byte	0x1
 2317 0114 03       		.uleb128 0x3
 2318 0115 0E       		.uleb128 0xe
 2319 0116 0B       		.uleb128 0xb
 2320 0117 0B       		.uleb128 0xb
 2321 0118 3A       		.uleb128 0x3a
 2322 0119 0B       		.uleb128 0xb
 2323 011a 3B       		.uleb128 0x3b
 2324 011b 05       		.uleb128 0x5
 2325 011c 01       		.uleb128 0x1
 2326 011d 13       		.uleb128 0x13
 2327 011e 00       		.byte	0
 2328 011f 00       		.byte	0
 2329 0120 19       		.uleb128 0x19
 2330 0121 13       		.uleb128 0x13
 2331 0122 01       		.byte	0x1
 2332 0123 0B       		.uleb128 0xb
 2333 0124 0B       		.uleb128 0xb
 2334 0125 3A       		.uleb128 0x3a
 2335 0126 0B       		.uleb128 0xb
 2336 0127 3B       		.uleb128 0x3b
 2337 0128 05       		.uleb128 0x5
 2338 0129 01       		.uleb128 0x1
 2339 012a 13       		.uleb128 0x13
 2340 012b 00       		.byte	0
 2341 012c 00       		.byte	0
 2342 012d 1A       		.uleb128 0x1a
 2343 012e 17       		.uleb128 0x17
 2344 012f 01       		.byte	0x1
 2345 0130 0B       		.uleb128 0xb
 2346 0131 0B       		.uleb128 0xb
 2347 0132 3A       		.uleb128 0x3a
 2348 0133 0B       		.uleb128 0xb
 2349 0134 3B       		.uleb128 0x3b
 2350 0135 05       		.uleb128 0x5
 2351 0136 01       		.uleb128 0x1
ARM GAS  C:\Users\EBANO_~1\AppData\Local\Temp\ccn772Xo.s 			page 44


 2352 0137 13       		.uleb128 0x13
 2353 0138 00       		.byte	0
 2354 0139 00       		.byte	0
 2355 013a 1B       		.uleb128 0x1b
 2356 013b 0D       		.uleb128 0xd
 2357 013c 00       		.byte	0
 2358 013d 03       		.uleb128 0x3
 2359 013e 0E       		.uleb128 0xe
 2360 013f 3A       		.uleb128 0x3a
 2361 0140 0B       		.uleb128 0xb
 2362 0141 3B       		.uleb128 0x3b
 2363 0142 05       		.uleb128 0x5
 2364 0143 49       		.uleb128 0x49
 2365 0144 13       		.uleb128 0x13
 2366 0145 00       		.byte	0
 2367 0146 00       		.byte	0
 2368 0147 1C       		.uleb128 0x1c
 2369 0148 15       		.uleb128 0x15
 2370 0149 01       		.byte	0x1
 2371 014a 27       		.uleb128 0x27
 2372 014b 0C       		.uleb128 0xc
 2373 014c 01       		.uleb128 0x1
 2374 014d 13       		.uleb128 0x13
 2375 014e 00       		.byte	0
 2376 014f 00       		.byte	0
 2377 0150 1D       		.uleb128 0x1d
 2378 0151 34       		.uleb128 0x34
 2379 0152 00       		.byte	0
 2380 0153 03       		.uleb128 0x3
 2381 0154 0E       		.uleb128 0xe
 2382 0155 3A       		.uleb128 0x3a
 2383 0156 0B       		.uleb128 0xb
 2384 0157 3B       		.uleb128 0x3b
 2385 0158 05       		.uleb128 0x5
 2386 0159 49       		.uleb128 0x49
 2387 015a 13       		.uleb128 0x13
 2388 015b 3F       		.uleb128 0x3f
 2389 015c 0C       		.uleb128 0xc
 2390 015d 3C       		.uleb128 0x3c
 2391 015e 0C       		.uleb128 0xc
 2392 015f 00       		.byte	0
 2393 0160 00       		.byte	0
 2394 0161 1E       		.uleb128 0x1e
 2395 0162 34       		.uleb128 0x34
 2396 0163 00       		.byte	0
 2397 0164 03       		.uleb128 0x3
 2398 0165 0E       		.uleb128 0xe
 2399 0166 3A       		.uleb128 0x3a
 2400 0167 0B       		.uleb128 0xb
 2401 0168 3B       		.uleb128 0x3b
 2402 0169 0B       		.uleb128 0xb
 2403 016a 49       		.uleb128 0x49
 2404 016b 13       		.uleb128 0x13
 2405 016c 3F       		.uleb128 0x3f
 2406 016d 0C       		.uleb128 0xc
 2407 016e 3C       		.uleb128 0x3c
 2408 016f 0C       		.uleb128 0xc
ARM GAS  C:\Users\EBANO_~1\AppData\Local\Temp\ccn772Xo.s 			page 45


 2409 0170 00       		.byte	0
 2410 0171 00       		.byte	0
 2411 0172 1F       		.uleb128 0x1f
 2412 0173 34       		.uleb128 0x34
 2413 0174 00       		.byte	0
 2414 0175 03       		.uleb128 0x3
 2415 0176 0E       		.uleb128 0xe
 2416 0177 3A       		.uleb128 0x3a
 2417 0178 0B       		.uleb128 0xb
 2418 0179 3B       		.uleb128 0x3b
 2419 017a 0B       		.uleb128 0xb
 2420 017b 49       		.uleb128 0x49
 2421 017c 13       		.uleb128 0x13
 2422 017d 02       		.uleb128 0x2
 2423 017e 0A       		.uleb128 0xa
 2424 017f 00       		.byte	0
 2425 0180 00       		.byte	0
 2426 0181 20       		.uleb128 0x20
 2427 0182 2E       		.uleb128 0x2e
 2428 0183 01       		.byte	0x1
 2429 0184 3F       		.uleb128 0x3f
 2430 0185 0C       		.uleb128 0xc
 2431 0186 03       		.uleb128 0x3
 2432 0187 0E       		.uleb128 0xe
 2433 0188 3A       		.uleb128 0x3a
 2434 0189 0B       		.uleb128 0xb
 2435 018a 3B       		.uleb128 0x3b
 2436 018b 0B       		.uleb128 0xb
 2437 018c 27       		.uleb128 0x27
 2438 018d 0C       		.uleb128 0xc
 2439 018e 49       		.uleb128 0x49
 2440 018f 13       		.uleb128 0x13
 2441 0190 11       		.uleb128 0x11
 2442 0191 01       		.uleb128 0x1
 2443 0192 12       		.uleb128 0x12
 2444 0193 01       		.uleb128 0x1
 2445 0194 40       		.uleb128 0x40
 2446 0195 0A       		.uleb128 0xa
 2447 0196 9742     		.uleb128 0x2117
 2448 0198 0C       		.uleb128 0xc
 2449 0199 01       		.uleb128 0x1
 2450 019a 13       		.uleb128 0x13
 2451 019b 00       		.byte	0
 2452 019c 00       		.byte	0
 2453 019d 21       		.uleb128 0x21
 2454 019e 05       		.uleb128 0x5
 2455 019f 00       		.byte	0
 2456 01a0 03       		.uleb128 0x3
 2457 01a1 08       		.uleb128 0x8
 2458 01a2 3A       		.uleb128 0x3a
 2459 01a3 0B       		.uleb128 0xb
 2460 01a4 3B       		.uleb128 0x3b
 2461 01a5 0B       		.uleb128 0xb
 2462 01a6 49       		.uleb128 0x49
 2463 01a7 13       		.uleb128 0x13
 2464 01a8 02       		.uleb128 0x2
 2465 01a9 06       		.uleb128 0x6
ARM GAS  C:\Users\EBANO_~1\AppData\Local\Temp\ccn772Xo.s 			page 46


 2466 01aa 00       		.byte	0
 2467 01ab 00       		.byte	0
 2468 01ac 22       		.uleb128 0x22
 2469 01ad 2E       		.uleb128 0x2e
 2470 01ae 01       		.byte	0x1
 2471 01af 3F       		.uleb128 0x3f
 2472 01b0 0C       		.uleb128 0xc
 2473 01b1 03       		.uleb128 0x3
 2474 01b2 0E       		.uleb128 0xe
 2475 01b3 3A       		.uleb128 0x3a
 2476 01b4 0B       		.uleb128 0xb
 2477 01b5 3B       		.uleb128 0x3b
 2478 01b6 0B       		.uleb128 0xb
 2479 01b7 27       		.uleb128 0x27
 2480 01b8 0C       		.uleb128 0xc
 2481 01b9 11       		.uleb128 0x11
 2482 01ba 01       		.uleb128 0x1
 2483 01bb 12       		.uleb128 0x12
 2484 01bc 01       		.uleb128 0x1
 2485 01bd 40       		.uleb128 0x40
 2486 01be 06       		.uleb128 0x6
 2487 01bf 9742     		.uleb128 0x2117
 2488 01c1 0C       		.uleb128 0xc
 2489 01c2 01       		.uleb128 0x1
 2490 01c3 13       		.uleb128 0x13
 2491 01c4 00       		.byte	0
 2492 01c5 00       		.byte	0
 2493 01c6 23       		.uleb128 0x23
 2494 01c7 05       		.uleb128 0x5
 2495 01c8 00       		.byte	0
 2496 01c9 03       		.uleb128 0x3
 2497 01ca 0E       		.uleb128 0xe
 2498 01cb 3A       		.uleb128 0x3a
 2499 01cc 0B       		.uleb128 0xb
 2500 01cd 3B       		.uleb128 0x3b
 2501 01ce 0B       		.uleb128 0xb
 2502 01cf 49       		.uleb128 0x49
 2503 01d0 13       		.uleb128 0x13
 2504 01d1 02       		.uleb128 0x2
 2505 01d2 06       		.uleb128 0x6
 2506 01d3 00       		.byte	0
 2507 01d4 00       		.byte	0
 2508 01d5 24       		.uleb128 0x24
 2509 01d6 898201   		.uleb128 0x4109
 2510 01d9 01       		.byte	0x1
 2511 01da 11       		.uleb128 0x11
 2512 01db 01       		.uleb128 0x1
 2513 01dc 31       		.uleb128 0x31
 2514 01dd 13       		.uleb128 0x13
 2515 01de 00       		.byte	0
 2516 01df 00       		.byte	0
 2517 01e0 25       		.uleb128 0x25
 2518 01e1 8A8201   		.uleb128 0x410a
 2519 01e4 00       		.byte	0
 2520 01e5 02       		.uleb128 0x2
 2521 01e6 0A       		.uleb128 0xa
 2522 01e7 9142     		.uleb128 0x2111
ARM GAS  C:\Users\EBANO_~1\AppData\Local\Temp\ccn772Xo.s 			page 47


 2523 01e9 0A       		.uleb128 0xa
 2524 01ea 00       		.byte	0
 2525 01eb 00       		.byte	0
 2526 01ec 26       		.uleb128 0x26
 2527 01ed 2E       		.uleb128 0x2e
 2528 01ee 01       		.byte	0x1
 2529 01ef 3F       		.uleb128 0x3f
 2530 01f0 0C       		.uleb128 0xc
 2531 01f1 03       		.uleb128 0x3
 2532 01f2 0E       		.uleb128 0xe
 2533 01f3 3A       		.uleb128 0x3a
 2534 01f4 0B       		.uleb128 0xb
 2535 01f5 3B       		.uleb128 0x3b
 2536 01f6 0B       		.uleb128 0xb
 2537 01f7 27       		.uleb128 0x27
 2538 01f8 0C       		.uleb128 0xc
 2539 01f9 11       		.uleb128 0x11
 2540 01fa 01       		.uleb128 0x1
 2541 01fb 12       		.uleb128 0x12
 2542 01fc 01       		.uleb128 0x1
 2543 01fd 40       		.uleb128 0x40
 2544 01fe 0A       		.uleb128 0xa
 2545 01ff 9742     		.uleb128 0x2117
 2546 0201 0C       		.uleb128 0xc
 2547 0202 01       		.uleb128 0x1
 2548 0203 13       		.uleb128 0x13
 2549 0204 00       		.byte	0
 2550 0205 00       		.byte	0
 2551 0206 27       		.uleb128 0x27
 2552 0207 2E       		.uleb128 0x2e
 2553 0208 01       		.byte	0x1
 2554 0209 3F       		.uleb128 0x3f
 2555 020a 0C       		.uleb128 0xc
 2556 020b 03       		.uleb128 0x3
 2557 020c 0E       		.uleb128 0xe
 2558 020d 3A       		.uleb128 0x3a
 2559 020e 0B       		.uleb128 0xb
 2560 020f 3B       		.uleb128 0x3b
 2561 0210 0B       		.uleb128 0xb
 2562 0211 27       		.uleb128 0x27
 2563 0212 0C       		.uleb128 0xc
 2564 0213 49       		.uleb128 0x49
 2565 0214 13       		.uleb128 0x13
 2566 0215 11       		.uleb128 0x11
 2567 0216 01       		.uleb128 0x1
 2568 0217 12       		.uleb128 0x12
 2569 0218 01       		.uleb128 0x1
 2570 0219 40       		.uleb128 0x40
 2571 021a 06       		.uleb128 0x6
 2572 021b 9642     		.uleb128 0x2116
 2573 021d 0C       		.uleb128 0xc
 2574 021e 01       		.uleb128 0x1
 2575 021f 13       		.uleb128 0x13
 2576 0220 00       		.byte	0
 2577 0221 00       		.byte	0
 2578 0222 28       		.uleb128 0x28
 2579 0223 1D       		.uleb128 0x1d
ARM GAS  C:\Users\EBANO_~1\AppData\Local\Temp\ccn772Xo.s 			page 48


 2580 0224 00       		.byte	0
 2581 0225 31       		.uleb128 0x31
 2582 0226 13       		.uleb128 0x13
 2583 0227 52       		.uleb128 0x52
 2584 0228 01       		.uleb128 0x1
 2585 0229 55       		.uleb128 0x55
 2586 022a 06       		.uleb128 0x6
 2587 022b 58       		.uleb128 0x58
 2588 022c 0B       		.uleb128 0xb
 2589 022d 59       		.uleb128 0x59
 2590 022e 0B       		.uleb128 0xb
 2591 022f 00       		.byte	0
 2592 0230 00       		.byte	0
 2593 0231 29       		.uleb128 0x29
 2594 0232 05       		.uleb128 0x5
 2595 0233 00       		.byte	0
 2596 0234 03       		.uleb128 0x3
 2597 0235 0E       		.uleb128 0xe
 2598 0236 3A       		.uleb128 0x3a
 2599 0237 0B       		.uleb128 0xb
 2600 0238 3B       		.uleb128 0x3b
 2601 0239 0B       		.uleb128 0xb
 2602 023a 49       		.uleb128 0x49
 2603 023b 13       		.uleb128 0x13
 2604 023c 02       		.uleb128 0x2
 2605 023d 0A       		.uleb128 0xa
 2606 023e 00       		.byte	0
 2607 023f 00       		.byte	0
 2608 0240 2A       		.uleb128 0x2a
 2609 0241 2E       		.uleb128 0x2e
 2610 0242 00       		.byte	0
 2611 0243 3F       		.uleb128 0x3f
 2612 0244 0C       		.uleb128 0xc
 2613 0245 03       		.uleb128 0x3
 2614 0246 0E       		.uleb128 0xe
 2615 0247 3A       		.uleb128 0x3a
 2616 0248 0B       		.uleb128 0xb
 2617 0249 3B       		.uleb128 0x3b
 2618 024a 0B       		.uleb128 0xb
 2619 024b 27       		.uleb128 0x27
 2620 024c 0C       		.uleb128 0xc
 2621 024d 49       		.uleb128 0x49
 2622 024e 13       		.uleb128 0x13
 2623 024f 20       		.uleb128 0x20
 2624 0250 0B       		.uleb128 0xb
 2625 0251 00       		.byte	0
 2626 0252 00       		.byte	0
 2627 0253 2B       		.uleb128 0x2b
 2628 0254 2E       		.uleb128 0x2e
 2629 0255 00       		.byte	0
 2630 0256 31       		.uleb128 0x31
 2631 0257 13       		.uleb128 0x13
 2632 0258 11       		.uleb128 0x11
 2633 0259 01       		.uleb128 0x1
 2634 025a 12       		.uleb128 0x12
 2635 025b 01       		.uleb128 0x1
 2636 025c 40       		.uleb128 0x40
ARM GAS  C:\Users\EBANO_~1\AppData\Local\Temp\ccn772Xo.s 			page 49


 2637 025d 06       		.uleb128 0x6
 2638 025e 9642     		.uleb128 0x2116
 2639 0260 0C       		.uleb128 0xc
 2640 0261 00       		.byte	0
 2641 0262 00       		.byte	0
 2642 0263 2C       		.uleb128 0x2c
 2643 0264 2E       		.uleb128 0x2e
 2644 0265 00       		.byte	0
 2645 0266 3F       		.uleb128 0x3f
 2646 0267 0C       		.uleb128 0xc
 2647 0268 3C       		.uleb128 0x3c
 2648 0269 0C       		.uleb128 0xc
 2649 026a 8740     		.uleb128 0x2007
 2650 026c 0E       		.uleb128 0xe
 2651 026d 03       		.uleb128 0x3
 2652 026e 0E       		.uleb128 0xe
 2653 026f 3A       		.uleb128 0x3a
 2654 0270 0B       		.uleb128 0xb
 2655 0271 3B       		.uleb128 0x3b
 2656 0272 0B       		.uleb128 0xb
 2657 0273 8740     		.uleb128 0x2007
 2658 0275 0E       		.uleb128 0xe
 2659 0276 00       		.byte	0
 2660 0277 00       		.byte	0
 2661 0278 00       		.byte	0
 2662              		.section	.debug_loc,"",%progbits
 2663              	.Ldebug_loc0:
 2664              	.LLST15:
 2665 0000 00000000 		.4byte	.LVL32
 2666 0004 0A000000 		.4byte	.LVL33
 2667 0008 0100     		.2byte	0x1
 2668 000a 50       		.byte	0x50
 2669 000b 0A000000 		.4byte	.LVL33
 2670 000f 0E000000 		.4byte	.LVL34
 2671 0013 0400     		.2byte	0x4
 2672 0015 F3       		.byte	0xf3
 2673 0016 01       		.uleb128 0x1
 2674 0017 50       		.byte	0x50
 2675 0018 9F       		.byte	0x9f
 2676 0019 0E000000 		.4byte	.LVL34
 2677 001d 10000000 		.4byte	.LVL35
 2678 0021 0100     		.2byte	0x1
 2679 0023 50       		.byte	0x50
 2680 0024 10000000 		.4byte	.LVL35
 2681 0028 14000000 		.4byte	.LVL36
 2682 002c 0400     		.2byte	0x4
 2683 002e F3       		.byte	0xf3
 2684 002f 01       		.uleb128 0x1
 2685 0030 50       		.byte	0x50
 2686 0031 9F       		.byte	0x9f
 2687 0032 14000000 		.4byte	.LVL36
 2688 0036 16000000 		.4byte	.LVL37
 2689 003a 0100     		.2byte	0x1
 2690 003c 50       		.byte	0x50
 2691 003d 16000000 		.4byte	.LVL37
 2692 0041 18000000 		.4byte	.LFE45
 2693 0045 0400     		.2byte	0x4
ARM GAS  C:\Users\EBANO_~1\AppData\Local\Temp\ccn772Xo.s 			page 50


 2694 0047 F3       		.byte	0xf3
 2695 0048 01       		.uleb128 0x1
 2696 0049 50       		.byte	0x50
 2697 004a 9F       		.byte	0x9f
 2698 004b 00000000 		.4byte	0
 2699 004f 00000000 		.4byte	0
 2700              	.LLST11:
 2701 0053 00000000 		.4byte	.LFB44
 2702 0057 02000000 		.4byte	.LCFI3
 2703 005b 0200     		.2byte	0x2
 2704 005d 7D       		.byte	0x7d
 2705 005e 00       		.sleb128 0
 2706 005f 02000000 		.4byte	.LCFI3
 2707 0063 12000000 		.4byte	.LFE44
 2708 0067 0200     		.2byte	0x2
 2709 0069 7D       		.byte	0x7d
 2710 006a 08       		.sleb128 8
 2711 006b 00000000 		.4byte	0
 2712 006f 00000000 		.4byte	0
 2713              	.LLST12:
 2714 0073 00000000 		.4byte	.LVL29
 2715 0077 0F000000 		.4byte	.LVL31-1
 2716 007b 0100     		.2byte	0x1
 2717 007d 50       		.byte	0x50
 2718 007e 0F000000 		.4byte	.LVL31-1
 2719 0082 12000000 		.4byte	.LFE44
 2720 0086 0400     		.2byte	0x4
 2721 0088 F3       		.byte	0xf3
 2722 0089 01       		.uleb128 0x1
 2723 008a 50       		.byte	0x50
 2724 008b 9F       		.byte	0x9f
 2725 008c 00000000 		.4byte	0
 2726 0090 00000000 		.4byte	0
 2727              	.LLST13:
 2728 0094 00000000 		.4byte	.LVL29
 2729 0098 0F000000 		.4byte	.LVL31-1
 2730 009c 0100     		.2byte	0x1
 2731 009e 51       		.byte	0x51
 2732 009f 0F000000 		.4byte	.LVL31-1
 2733 00a3 12000000 		.4byte	.LFE44
 2734 00a7 0400     		.2byte	0x4
 2735 00a9 F3       		.byte	0xf3
 2736 00aa 01       		.uleb128 0x1
 2737 00ab 51       		.byte	0x51
 2738 00ac 9F       		.byte	0x9f
 2739 00ad 00000000 		.4byte	0
 2740 00b1 00000000 		.4byte	0
 2741              	.LLST14:
 2742 00b5 00000000 		.4byte	.LVL29
 2743 00b9 00000000 		.4byte	.LVL29
 2744 00bd 0100     		.2byte	0x1
 2745 00bf 52       		.byte	0x52
 2746 00c0 00000000 		.4byte	.LVL29
 2747 00c4 08000000 		.4byte	.LVL30
 2748 00c8 0300     		.2byte	0x3
 2749 00ca 72       		.byte	0x72
 2750 00cb 7F       		.sleb128 -1
ARM GAS  C:\Users\EBANO_~1\AppData\Local\Temp\ccn772Xo.s 			page 51


 2751 00cc 9F       		.byte	0x9f
 2752 00cd 08000000 		.4byte	.LVL30
 2753 00d1 12000000 		.4byte	.LFE44
 2754 00d5 0600     		.2byte	0x6
 2755 00d7 F3       		.byte	0xf3
 2756 00d8 01       		.uleb128 0x1
 2757 00d9 52       		.byte	0x52
 2758 00da 31       		.byte	0x31
 2759 00db 1C       		.byte	0x1c
 2760 00dc 9F       		.byte	0x9f
 2761 00dd 00000000 		.4byte	0
 2762 00e1 00000000 		.4byte	0
 2763              	.LLST8:
 2764 00e5 00000000 		.4byte	.LVL21
 2765 00e9 04000000 		.4byte	.LVL22
 2766 00ed 0100     		.2byte	0x1
 2767 00ef 50       		.byte	0x50
 2768 00f0 04000000 		.4byte	.LVL22
 2769 00f4 1C000000 		.4byte	.LFE43
 2770 00f8 0100     		.2byte	0x1
 2771 00fa 50       		.byte	0x50
 2772 00fb 00000000 		.4byte	0
 2773 00ff 00000000 		.4byte	0
 2774              	.LLST9:
 2775 0103 00000000 		.4byte	.LVL21
 2776 0107 0E000000 		.4byte	.LVL25
 2777 010b 0100     		.2byte	0x1
 2778 010d 51       		.byte	0x51
 2779 010e 0E000000 		.4byte	.LVL25
 2780 0112 16000000 		.4byte	.LVL27
 2781 0116 0300     		.2byte	0x3
 2782 0118 71       		.byte	0x71
 2783 0119 01       		.sleb128 1
 2784 011a 9F       		.byte	0x9f
 2785 011b 16000000 		.4byte	.LVL27
 2786 011f 1A000000 		.4byte	.LVL28
 2787 0123 0100     		.2byte	0x1
 2788 0125 51       		.byte	0x51
 2789 0126 00000000 		.4byte	0
 2790 012a 00000000 		.4byte	0
 2791              	.LLST10:
 2792 012e 00000000 		.4byte	.LVL21
 2793 0132 06000000 		.4byte	.LVL23
 2794 0136 0100     		.2byte	0x1
 2795 0138 52       		.byte	0x52
 2796 0139 06000000 		.4byte	.LVL23
 2797 013d 0C000000 		.4byte	.LVL24
 2798 0141 0100     		.2byte	0x1
 2799 0143 53       		.byte	0x53
 2800 0144 0C000000 		.4byte	.LVL24
 2801 0148 0E000000 		.4byte	.LVL25
 2802 014c 0400     		.2byte	0x4
 2803 014e 73       		.byte	0x73
 2804 014f 00       		.sleb128 0
 2805 0150 20       		.byte	0x20
 2806 0151 9F       		.byte	0x9f
 2807 0152 00000000 		.4byte	0
ARM GAS  C:\Users\EBANO_~1\AppData\Local\Temp\ccn772Xo.s 			page 52


 2808 0156 00000000 		.4byte	0
 2809              	.LLST4:
 2810 015a 00000000 		.4byte	.LFB42
 2811 015e 02000000 		.4byte	.LCFI2
 2812 0162 0200     		.2byte	0x2
 2813 0164 7D       		.byte	0x7d
 2814 0165 00       		.sleb128 0
 2815 0166 02000000 		.4byte	.LCFI2
 2816 016a 82000000 		.4byte	.LFE42
 2817 016e 0200     		.2byte	0x2
 2818 0170 7D       		.byte	0x7d
 2819 0171 14       		.sleb128 20
 2820 0172 00000000 		.4byte	0
 2821 0176 00000000 		.4byte	0
 2822              	.LLST5:
 2823 017a 00000000 		.4byte	.LVL9
 2824 017e 3C000000 		.4byte	.LVL11
 2825 0182 0100     		.2byte	0x1
 2826 0184 50       		.byte	0x50
 2827 0185 5C000000 		.4byte	.LVL12
 2828 0189 64000000 		.4byte	.LVL14
 2829 018d 0300     		.2byte	0x3
 2830 018f 70       		.byte	0x70
 2831 0190 01       		.sleb128 1
 2832 0191 9F       		.byte	0x9f
 2833 0192 64000000 		.4byte	.LVL14
 2834 0196 6C000000 		.4byte	.LVL16
 2835 019a 0300     		.2byte	0x3
 2836 019c 70       		.byte	0x70
 2837 019d 02       		.sleb128 2
 2838 019e 9F       		.byte	0x9f
 2839 019f 6C000000 		.4byte	.LVL16
 2840 01a3 70000000 		.4byte	.LVL17
 2841 01a7 0300     		.2byte	0x3
 2842 01a9 70       		.byte	0x70
 2843 01aa 03       		.sleb128 3
 2844 01ab 9F       		.byte	0x9f
 2845 01ac 72000000 		.4byte	.LVL18
 2846 01b0 76000000 		.4byte	.LVL19
 2847 01b4 0100     		.2byte	0x1
 2848 01b6 50       		.byte	0x50
 2849 01b7 76000000 		.4byte	.LVL19
 2850 01bb 7C000000 		.4byte	.LVL20
 2851 01bf 0800     		.2byte	0x8
 2852 01c1 70       		.byte	0x70
 2853 01c2 00       		.sleb128 0
 2854 01c3 73       		.byte	0x73
 2855 01c4 00       		.sleb128 0
 2856 01c5 22       		.byte	0x22
 2857 01c6 23       		.byte	0x23
 2858 01c7 01       		.uleb128 0x1
 2859 01c8 9F       		.byte	0x9f
 2860 01c9 7C000000 		.4byte	.LVL20
 2861 01cd 82000000 		.4byte	.LFE42
 2862 01d1 0600     		.2byte	0x6
 2863 01d3 70       		.byte	0x70
 2864 01d4 00       		.sleb128 0
ARM GAS  C:\Users\EBANO_~1\AppData\Local\Temp\ccn772Xo.s 			page 53


 2865 01d5 73       		.byte	0x73
 2866 01d6 00       		.sleb128 0
 2867 01d7 22       		.byte	0x22
 2868 01d8 9F       		.byte	0x9f
 2869 01d9 00000000 		.4byte	0
 2870 01dd 00000000 		.4byte	0
 2871              	.LLST6:
 2872 01e1 00000000 		.4byte	.LVL9
 2873 01e5 3C000000 		.4byte	.LVL11
 2874 01e9 0100     		.2byte	0x1
 2875 01eb 51       		.byte	0x51
 2876 01ec 5C000000 		.4byte	.LVL12
 2877 01f0 64000000 		.4byte	.LVL14
 2878 01f4 0300     		.2byte	0x3
 2879 01f6 71       		.byte	0x71
 2880 01f7 01       		.sleb128 1
 2881 01f8 9F       		.byte	0x9f
 2882 01f9 64000000 		.4byte	.LVL14
 2883 01fd 6C000000 		.4byte	.LVL16
 2884 0201 0300     		.2byte	0x3
 2885 0203 71       		.byte	0x71
 2886 0204 02       		.sleb128 2
 2887 0205 9F       		.byte	0x9f
 2888 0206 6C000000 		.4byte	.LVL16
 2889 020a 70000000 		.4byte	.LVL17
 2890 020e 0300     		.2byte	0x3
 2891 0210 71       		.byte	0x71
 2892 0211 03       		.sleb128 3
 2893 0212 9F       		.byte	0x9f
 2894 0213 72000000 		.4byte	.LVL18
 2895 0217 76000000 		.4byte	.LVL19
 2896 021b 0100     		.2byte	0x1
 2897 021d 51       		.byte	0x51
 2898 021e 76000000 		.4byte	.LVL19
 2899 0222 7C000000 		.4byte	.LVL20
 2900 0226 0800     		.2byte	0x8
 2901 0228 71       		.byte	0x71
 2902 0229 00       		.sleb128 0
 2903 022a 73       		.byte	0x73
 2904 022b 00       		.sleb128 0
 2905 022c 22       		.byte	0x22
 2906 022d 23       		.byte	0x23
 2907 022e 01       		.uleb128 0x1
 2908 022f 9F       		.byte	0x9f
 2909 0230 7C000000 		.4byte	.LVL20
 2910 0234 82000000 		.4byte	.LFE42
 2911 0238 0600     		.2byte	0x6
 2912 023a 71       		.byte	0x71
 2913 023b 00       		.sleb128 0
 2914 023c 73       		.byte	0x73
 2915 023d 00       		.sleb128 0
 2916 023e 22       		.byte	0x22
 2917 023f 9F       		.byte	0x9f
 2918 0240 00000000 		.4byte	0
 2919 0244 00000000 		.4byte	0
 2920              	.LLST7:
 2921 0248 00000000 		.4byte	.LVL9
ARM GAS  C:\Users\EBANO_~1\AppData\Local\Temp\ccn772Xo.s 			page 54


 2922 024c 06000000 		.4byte	.LVL10
 2923 0250 0100     		.2byte	0x1
 2924 0252 52       		.byte	0x52
 2925 0253 06000000 		.4byte	.LVL10
 2926 0257 3C000000 		.4byte	.LVL11
 2927 025b 0100     		.2byte	0x1
 2928 025d 55       		.byte	0x55
 2929 025e 5C000000 		.4byte	.LVL12
 2930 0262 60000000 		.4byte	.LVL13
 2931 0266 0100     		.2byte	0x1
 2932 0268 55       		.byte	0x55
 2933 0269 60000000 		.4byte	.LVL13
 2934 026d 68000000 		.4byte	.LVL15
 2935 0271 0300     		.2byte	0x3
 2936 0273 75       		.byte	0x75
 2937 0274 7F       		.sleb128 -1
 2938 0275 9F       		.byte	0x9f
 2939 0276 68000000 		.4byte	.LVL15
 2940 027a 70000000 		.4byte	.LVL17
 2941 027e 0300     		.2byte	0x3
 2942 0280 75       		.byte	0x75
 2943 0281 7E       		.sleb128 -2
 2944 0282 9F       		.byte	0x9f
 2945 0283 72000000 		.4byte	.LVL18
 2946 0287 76000000 		.4byte	.LVL19
 2947 028b 0100     		.2byte	0x1
 2948 028d 55       		.byte	0x55
 2949 028e 00000000 		.4byte	0
 2950 0292 00000000 		.4byte	0
 2951              	.LLST1:
 2952 0296 00000000 		.4byte	.LFB41
 2953 029a 04000000 		.4byte	.LCFI1
 2954 029e 0200     		.2byte	0x2
 2955 02a0 7D       		.byte	0x7d
 2956 02a1 00       		.sleb128 0
 2957 02a2 04000000 		.4byte	.LCFI1
 2958 02a6 3C000000 		.4byte	.LFE41
 2959 02aa 0200     		.2byte	0x2
 2960 02ac 7D       		.byte	0x7d
 2961 02ad 10       		.sleb128 16
 2962 02ae 00000000 		.4byte	0
 2963 02b2 00000000 		.4byte	0
 2964              	.LLST2:
 2965 02b6 00000000 		.4byte	.LVL2
 2966 02ba 0A000000 		.4byte	.LVL3
 2967 02be 0100     		.2byte	0x1
 2968 02c0 50       		.byte	0x50
 2969 02c1 0A000000 		.4byte	.LVL3
 2970 02c5 28000000 		.4byte	.LVL8
 2971 02c9 0100     		.2byte	0x1
 2972 02cb 55       		.byte	0x55
 2973 02cc 28000000 		.4byte	.LVL8
 2974 02d0 3C000000 		.4byte	.LFE41
 2975 02d4 0400     		.2byte	0x4
 2976 02d6 F3       		.byte	0xf3
 2977 02d7 01       		.uleb128 0x1
 2978 02d8 50       		.byte	0x50
ARM GAS  C:\Users\EBANO_~1\AppData\Local\Temp\ccn772Xo.s 			page 55


 2979 02d9 9F       		.byte	0x9f
 2980 02da 00000000 		.4byte	0
 2981 02de 00000000 		.4byte	0
 2982              	.LLST3:
 2983 02e2 00000000 		.4byte	.LVL2
 2984 02e6 12000000 		.4byte	.LVL4
 2985 02ea 0100     		.2byte	0x1
 2986 02ec 51       		.byte	0x51
 2987 02ed 12000000 		.4byte	.LVL4
 2988 02f1 28000000 		.4byte	.LVL7
 2989 02f5 0100     		.2byte	0x1
 2990 02f7 54       		.byte	0x54
 2991 02f8 28000000 		.4byte	.LVL7
 2992 02fc 3C000000 		.4byte	.LFE41
 2993 0300 0400     		.2byte	0x4
 2994 0302 F3       		.byte	0xf3
 2995 0303 01       		.uleb128 0x1
 2996 0304 51       		.byte	0x51
 2997 0305 9F       		.byte	0x9f
 2998 0306 00000000 		.4byte	0
 2999 030a 00000000 		.4byte	0
 3000              	.LLST0:
 3001 030e 00000000 		.4byte	.LFB39
 3002 0312 08000000 		.4byte	.LCFI0
 3003 0316 0200     		.2byte	0x2
 3004 0318 7D       		.byte	0x7d
 3005 0319 00       		.sleb128 0
 3006 031a 08000000 		.4byte	.LCFI0
 3007 031e 2C000000 		.4byte	.LFE39
 3008 0322 0200     		.2byte	0x2
 3009 0324 7D       		.byte	0x7d
 3010 0325 08       		.sleb128 8
 3011 0326 00000000 		.4byte	0
 3012 032a 00000000 		.4byte	0
 3013              		.section	.debug_aranges,"",%progbits
 3014 0000 4C000000 		.4byte	0x4c
 3015 0004 0200     		.2byte	0x2
 3016 0006 00000000 		.4byte	.Ldebug_info0
 3017 000a 04       		.byte	0x4
 3018 000b 00       		.byte	0
 3019 000c 0000     		.2byte	0
 3020 000e 0000     		.2byte	0
 3021 0010 00000000 		.4byte	.LFB39
 3022 0014 2C000000 		.4byte	.LFE39-.LFB39
 3023 0018 00000000 		.4byte	.LFB40
 3024 001c 0C000000 		.4byte	.LFE40-.LFB40
 3025 0020 00000000 		.4byte	.LFB41
 3026 0024 3C000000 		.4byte	.LFE41-.LFB41
 3027 0028 00000000 		.4byte	.LFB42
 3028 002c 82000000 		.4byte	.LFE42-.LFB42
 3029 0030 00000000 		.4byte	.LFB43
 3030 0034 1C000000 		.4byte	.LFE43-.LFB43
 3031 0038 00000000 		.4byte	.LFB44
 3032 003c 12000000 		.4byte	.LFE44-.LFB44
 3033 0040 00000000 		.4byte	.LFB45
 3034 0044 18000000 		.4byte	.LFE45-.LFB45
 3035 0048 00000000 		.4byte	0
ARM GAS  C:\Users\EBANO_~1\AppData\Local\Temp\ccn772Xo.s 			page 56


 3036 004c 00000000 		.4byte	0
 3037              		.section	.debug_ranges,"",%progbits
 3038              	.Ldebug_ranges0:
 3039 0000 00000000 		.4byte	.LBB4
 3040 0004 02000000 		.4byte	.LBE4
 3041 0008 04000000 		.4byte	.LBB9
 3042 000c 06000000 		.4byte	.LBE9
 3043 0010 08000000 		.4byte	.LBB10
 3044 0014 0A000000 		.4byte	.LBE10
 3045 0018 0C000000 		.4byte	.LBB11
 3046 001c 1E000000 		.4byte	.LBE11
 3047 0020 00000000 		.4byte	0
 3048 0024 00000000 		.4byte	0
 3049 0028 00000000 		.4byte	.LFB39
 3050 002c 2C000000 		.4byte	.LFE39
 3051 0030 00000000 		.4byte	.LFB40
 3052 0034 0C000000 		.4byte	.LFE40
 3053 0038 00000000 		.4byte	.LFB41
 3054 003c 3C000000 		.4byte	.LFE41
 3055 0040 00000000 		.4byte	.LFB42
 3056 0044 82000000 		.4byte	.LFE42
 3057 0048 00000000 		.4byte	.LFB43
 3058 004c 1C000000 		.4byte	.LFE43
 3059 0050 00000000 		.4byte	.LFB44
 3060 0054 12000000 		.4byte	.LFE44
 3061 0058 00000000 		.4byte	.LFB45
 3062 005c 18000000 		.4byte	.LFE45
 3063 0060 00000000 		.4byte	0
 3064 0064 00000000 		.4byte	0
 3065              		.section	.debug_line,"",%progbits
 3066              	.Ldebug_line0:
 3067 0000 35030000 		.section	.debug_str,"MS",%progbits,1
 3067      02008602 
 3067      00000201 
 3067      FB0E0D00 
 3067      01010101 
 3068              	.LASF44:
 3069 0000 5F64736F 		.ascii	"_dso_handle\000"
 3069      5F68616E 
 3069      646C6500 
 3070              	.LASF7:
 3071 000c 73686F72 		.ascii	"short int\000"
 3071      7420696E 
 3071      7400
 3072              	.LASF43:
 3073 0016 5F666E61 		.ascii	"_fnargs\000"
 3073      72677300 
 3074              	.LASF96:
 3075 001e 5F72616E 		.ascii	"_rand48\000"
 3075      64343800 
 3076              	.LASF76:
 3077 0026 5F656D65 		.ascii	"_emergency\000"
 3077      7267656E 
 3077      637900
 3078              	.LASF5:
 3079 0031 5F5F7569 		.ascii	"__uint8_t\000"
 3079      6E74385F 
ARM GAS  C:\Users\EBANO_~1\AppData\Local\Temp\ccn772Xo.s 			page 57


 3079      7400
 3080              	.LASF88:
 3081 003b 5F617465 		.ascii	"_atexit0\000"
 3081      78697430 
 3081      00
 3082              	.LASF116:
 3083 0044 5F776372 		.ascii	"_wcrtomb_state\000"
 3083      746F6D62 
 3083      5F737461 
 3083      746500
 3084              	.LASF117:
 3085 0053 5F776373 		.ascii	"_wcsrtombs_state\000"
 3085      72746F6D 
 3085      62735F73 
 3085      74617465 
 3085      00
 3086              	.LASF151:
 3087 0064 5F5F6275 		.ascii	"__builtin_memset\000"
 3087      696C7469 
 3087      6E5F6D65 
 3087      6D736574 
 3087      00
 3088              	.LASF14:
 3089 0075 6C6F6E67 		.ascii	"long long unsigned int\000"
 3089      206C6F6E 
 3089      6720756E 
 3089      7369676E 
 3089      65642069 
 3090              	.LASF149:
 3091 008c 72616E64 		.ascii	"rand1\000"
 3091      3100
 3092              	.LASF56:
 3093 0092 5F6C6266 		.ascii	"_lbfsize\000"
 3093      73697A65 
 3093      00
 3094              	.LASF140:
 3095 009b 6D656D63 		.ascii	"memcpy1\000"
 3095      70793100 
 3096              	.LASF123:
 3097 00a3 5F5F6C6F 		.ascii	"__locale_t\000"
 3097      63616C65 
 3097      5F7400
 3098              	.LASF4:
 3099 00ae 5F5F696E 		.ascii	"__int8_t\000"
 3099      74385F74 
 3099      00
 3100              	.LASF114:
 3101 00b7 5F6D6272 		.ascii	"_mbrtowc_state\000"
 3101      746F7763 
 3101      5F737461 
 3101      746500
 3102              	.LASF148:
 3103 00c6 6E657874 		.ascii	"next\000"
 3103      00
 3104              	.LASF33:
 3105 00cb 5F5F746D 		.ascii	"__tm_sec\000"
 3105      5F736563 
ARM GAS  C:\Users\EBANO_~1\AppData\Local\Temp\ccn772Xo.s 			page 58


 3105      00
 3106              	.LASF16:
 3107 00d4 5F6F6666 		.ascii	"_off_t\000"
 3107      5F7400
 3108              	.LASF61:
 3109 00db 5F636C6F 		.ascii	"_close\000"
 3109      736500
 3110              	.LASF3:
 3111 00e2 7369676E 		.ascii	"signed char\000"
 3111      65642063 
 3111      68617200 
 3112              	.LASF62:
 3113 00ee 5F756275 		.ascii	"_ubuf\000"
 3113      6600
 3114              	.LASF51:
 3115 00f4 5F626173 		.ascii	"_base\000"
 3115      6500
 3116              	.LASF35:
 3117 00fa 5F5F746D 		.ascii	"__tm_hour\000"
 3117      5F686F75 
 3117      7200
 3118              	.LASF91:
 3119 0104 5F5F7366 		.ascii	"__sf\000"
 3119      00
 3120              	.LASF42:
 3121 0109 5F6F6E5F 		.ascii	"_on_exit_args\000"
 3121      65786974 
 3121      5F617267 
 3121      7300
 3122              	.LASF57:
 3123 0117 5F636F6F 		.ascii	"_cookie\000"
 3123      6B696500 
 3124              	.LASF90:
 3125 011f 5F5F7367 		.ascii	"__sglue\000"
 3125      6C756500 
 3126              	.LASF11:
 3127 0127 6C6F6E67 		.ascii	"long int\000"
 3127      20696E74 
 3127      00
 3128              	.LASF54:
 3129 0130 5F666C61 		.ascii	"_flags\000"
 3129      677300
 3130              	.LASF46:
 3131 0137 5F69735F 		.ascii	"_is_cxa\000"
 3131      63786100 
 3132              	.LASF72:
 3133 013f 5F737464 		.ascii	"_stdin\000"
 3133      696E00
 3134              	.LASF82:
 3135 0146 5F726573 		.ascii	"_result_k\000"
 3135      756C745F 
 3135      6B00
 3136              	.LASF142:
 3137 0150 72616E64 		.ascii	"randr\000"
 3137      7200
 3138              	.LASF1:
 3139 0156 6C6F6E67 		.ascii	"long long int\000"
ARM GAS  C:\Users\EBANO_~1\AppData\Local\Temp\ccn772Xo.s 			page 59


 3139      206C6F6E 
 3139      6720696E 
 3139      7400
 3140              	.LASF139:
 3141 0164 6D656D63 		.ascii	"memcpyr\000"
 3141      70797200 
 3142              	.LASF129:
 3143 016c 75696E74 		.ascii	"uint16_t\000"
 3143      31365F74 
 3143      00
 3144              	.LASF86:
 3145 0175 5F637674 		.ascii	"_cvtbuf\000"
 3145      62756600 
 3146              	.LASF65:
 3147 017d 5F6F6666 		.ascii	"_offset\000"
 3147      73657400 
 3148              	.LASF115:
 3149 0185 5F6D6273 		.ascii	"_mbsrtowcs_state\000"
 3149      72746F77 
 3149      63735F73 
 3149      74617465 
 3149      00
 3150              	.LASF113:
 3151 0196 5F6D6272 		.ascii	"_mbrlen_state\000"
 3151      6C656E5F 
 3151      73746174 
 3151      6500
 3152              	.LASF49:
 3153 01a4 5F666E73 		.ascii	"_fns\000"
 3153      00
 3154              	.LASF12:
 3155 01a9 5F5F7569 		.ascii	"__uint32_t\000"
 3155      6E743332 
 3155      5F7400
 3156              	.LASF29:
 3157 01b4 5F736967 		.ascii	"_sign\000"
 3157      6E00
 3158              	.LASF124:
 3159 01ba 5F696D70 		.ascii	"_impure_ptr\000"
 3159      7572655F 
 3159      70747200 
 3160              	.LASF74:
 3161 01c6 5F737464 		.ascii	"_stderr\000"
 3161      65727200 
 3162              	.LASF31:
 3163 01ce 5F426967 		.ascii	"_Bigint\000"
 3163      696E7400 
 3164              	.LASF134:
 3165 01d6 41504250 		.ascii	"APBPrescTable\000"
 3165      72657363 
 3165      5461626C 
 3165      6500
 3166              	.LASF58:
 3167 01e4 5F726561 		.ascii	"_read\000"
 3167      6400
 3168              	.LASF136:
 3169 01ea 76616C75 		.ascii	"value\000"
ARM GAS  C:\Users\EBANO_~1\AppData\Local\Temp\ccn772Xo.s 			page 60


 3169      6500
 3170              	.LASF32:
 3171 01f0 5F5F746D 		.ascii	"__tm\000"
 3171      00
 3172              	.LASF20:
 3173 01f5 5F5F7763 		.ascii	"__wchb\000"
 3173      686200
 3174              	.LASF132:
 3175 01fc 53797374 		.ascii	"SystemCoreClock\000"
 3175      656D436F 
 3175      7265436C 
 3175      6F636B00 
 3176              	.LASF73:
 3177 020c 5F737464 		.ascii	"_stdout\000"
 3177      6F757400 
 3178              	.LASF144:
 3179 0214 73656564 		.ascii	"seed\000"
 3179      00
 3180              	.LASF85:
 3181 0219 5F637674 		.ascii	"_cvtlen\000"
 3181      6C656E00 
 3182              	.LASF13:
 3183 0221 6C6F6E67 		.ascii	"long unsigned int\000"
 3183      20756E73 
 3183      69676E65 
 3183      6420696E 
 3183      7400
 3184              	.LASF55:
 3185 0233 5F66696C 		.ascii	"_file\000"
 3185      6500
 3186              	.LASF66:
 3187 0239 5F646174 		.ascii	"_data\000"
 3187      6100
 3188              	.LASF94:
 3189 023f 5F6E696F 		.ascii	"_niobs\000"
 3189      627300
 3190              	.LASF137:
 3191 0246 73697A65 		.ascii	"size\000"
 3191      00
 3192              	.LASF105:
 3193 024b 5F72616E 		.ascii	"_rand_next\000"
 3193      645F6E65 
 3193      787400
 3194              	.LASF111:
 3195 0256 5F736967 		.ascii	"_signal_buf\000"
 3195      6E616C5F 
 3195      62756600 
 3196              	.LASF102:
 3197 0262 5F617363 		.ascii	"_asctime_buf\000"
 3197      74696D65 
 3197      5F627566 
 3197      00
 3198              	.LASF81:
 3199 026f 5F726573 		.ascii	"_result\000"
 3199      756C7400 
 3200              	.LASF19:
 3201 0277 5F5F7763 		.ascii	"__wch\000"
ARM GAS  C:\Users\EBANO_~1\AppData\Local\Temp\ccn772Xo.s 			page 61


 3201      6800
 3202              	.LASF15:
 3203 027d 5F4C4F43 		.ascii	"_LOCK_T\000"
 3203      4B5F5400 
 3204              	.LASF87:
 3205 0285 5F6E6577 		.ascii	"_new\000"
 3205      00
 3206              	.LASF67:
 3207 028a 5F6C6F63 		.ascii	"_lock\000"
 3207      6B00
 3208              	.LASF98:
 3209 0290 5F6D756C 		.ascii	"_mult\000"
 3209      7400
 3210              	.LASF59:
 3211 0296 5F777269 		.ascii	"_write\000"
 3211      746500
 3212              	.LASF38:
 3213 029d 5F5F746D 		.ascii	"__tm_year\000"
 3213      5F796561 
 3213      7200
 3214              	.LASF120:
 3215 02a7 5F6E6D61 		.ascii	"_nmalloc\000"
 3215      6C6C6F63 
 3215      00
 3216              	.LASF146:
 3217 02b0 2E2E2F2E 		.ascii	"../../../../../../Middlewares/Third_Party/LoRaWAN/U"
 3217      2E2F2E2E 
 3217      2F2E2E2F 
 3217      2E2E2F2E 
 3217      2E2F4D69 
 3218 02e3 74696C69 		.ascii	"tilities/utilities.c\000"
 3218      74696573 
 3218      2F757469 
 3218      6C697469 
 3218      65732E63 
 3219              	.LASF143:
 3220 02f8 7372616E 		.ascii	"srand1\000"
 3220      643100
 3221              	.LASF135:
 3222 02ff 504C4C4D 		.ascii	"PLLMulTable\000"
 3222      756C5461 
 3222      626C6500 
 3223              	.LASF141:
 3224 030b 4E696262 		.ascii	"Nibble2HexChar\000"
 3224      6C653248 
 3224      65784368 
 3224      617200
 3225              	.LASF119:
 3226 031a 5F6E6578 		.ascii	"_nextf\000"
 3226      746600
 3227              	.LASF37:
 3228 0321 5F5F746D 		.ascii	"__tm_mon\000"
 3228      5F6D6F6E 
 3228      00
 3229              	.LASF47:
 3230 032a 5F617465 		.ascii	"_atexit\000"
 3230      78697400 
ARM GAS  C:\Users\EBANO_~1\AppData\Local\Temp\ccn772Xo.s 			page 62


 3231              	.LASF126:
 3232 0332 7375626F 		.ascii	"suboptarg\000"
 3232      70746172 
 3232      6700
 3233              	.LASF79:
 3234 033c 5F5F7364 		.ascii	"__sdidinit\000"
 3234      6964696E 
 3234      697400
 3235              	.LASF104:
 3236 0347 5F67616D 		.ascii	"_gamma_signgam\000"
 3236      6D615F73 
 3236      69676E67 
 3236      616D00
 3237              	.LASF18:
 3238 0356 77696E74 		.ascii	"wint_t\000"
 3238      5F7400
 3239              	.LASF84:
 3240 035d 5F667265 		.ascii	"_freelist\000"
 3240      656C6973 
 3240      7400
 3241              	.LASF109:
 3242 0367 5F776374 		.ascii	"_wctomb_state\000"
 3242      6F6D625F 
 3242      73746174 
 3242      6500
 3243              	.LASF145:
 3244 0375 474E5520 		.ascii	"GNU C11 7.3.1 20180622 (release) [ARM/embedded-7-br"
 3244      43313120 
 3244      372E332E 
 3244      31203230 
 3244      31383036 
 3245 03a8 616E6368 		.ascii	"anch revision 261907] -mcpu=cortex-m0plus -mthumb -"
 3245      20726576 
 3245      6973696F 
 3245      6E203236 
 3245      31393037 
 3246 03db 6D666C6F 		.ascii	"mfloat-abi=soft -gdwarf-2 -O3 -ffunction-sections\000"
 3246      61742D61 
 3246      62693D73 
 3246      6F667420 
 3246      2D676477 
 3247              	.LASF130:
 3248 040d 696E7433 		.ascii	"int32_t\000"
 3248      325F7400 
 3249              	.LASF6:
 3250 0415 756E7369 		.ascii	"unsigned char\000"
 3250      676E6564 
 3250      20636861 
 3250      7200
 3251              	.LASF95:
 3252 0423 5F696F62 		.ascii	"_iobs\000"
 3252      7300
 3253              	.LASF118:
 3254 0429 5F685F65 		.ascii	"_h_errno\000"
 3254      72726E6F 
 3254      00
 3255              	.LASF40:
ARM GAS  C:\Users\EBANO_~1\AppData\Local\Temp\ccn772Xo.s 			page 63


 3256 0432 5F5F746D 		.ascii	"__tm_yday\000"
 3256      5F796461 
 3256      7900
 3257              	.LASF138:
 3258 043c 6D656D73 		.ascii	"memset1\000"
 3258      65743100 
 3259              	.LASF50:
 3260 0444 5F5F7362 		.ascii	"__sbuf\000"
 3260      756600
 3261              	.LASF69:
 3262 044b 5F666C61 		.ascii	"_flags2\000"
 3262      67733200 
 3263              	.LASF92:
 3264 0453 5F5F4649 		.ascii	"__FILE\000"
 3264      4C4500
 3265              	.LASF23:
 3266 045a 5F6D6273 		.ascii	"_mbstate_t\000"
 3266      74617465 
 3266      5F7400
 3267              	.LASF53:
 3268 0465 5F5F7346 		.ascii	"__sFILE\000"
 3268      494C4500 
 3269              	.LASF68:
 3270 046d 5F6D6273 		.ascii	"_mbstate\000"
 3270      74617465 
 3270      00
 3271              	.LASF107:
 3272 0476 5F6D626C 		.ascii	"_mblen_state\000"
 3272      656E5F73 
 3272      74617465 
 3272      00
 3273              	.LASF75:
 3274 0483 5F696E63 		.ascii	"_inc\000"
 3274      00
 3275              	.LASF48:
 3276 0488 5F696E64 		.ascii	"_ind\000"
 3276      00
 3277              	.LASF78:
 3278 048d 5F6C6F63 		.ascii	"_locale\000"
 3278      616C6500 
 3279              	.LASF80:
 3280 0495 5F5F636C 		.ascii	"__cleanup\000"
 3280      65616E75 
 3280      7000
 3281              	.LASF77:
 3282 049f 5F756E73 		.ascii	"_unspecified_locale_info\000"
 3282      70656369 
 3282      66696564 
 3282      5F6C6F63 
 3282      616C655F 
 3283              	.LASF28:
 3284 04b8 5F6D6178 		.ascii	"_maxwds\000"
 3284      77647300 
 3285              	.LASF70:
 3286 04c0 5F726565 		.ascii	"_reent\000"
 3286      6E7400
 3287              	.LASF97:
ARM GAS  C:\Users\EBANO_~1\AppData\Local\Temp\ccn772Xo.s 			page 64


 3288 04c7 5F736565 		.ascii	"_seed\000"
 3288      6400
 3289              	.LASF21:
 3290 04cd 5F5F636F 		.ascii	"__count\000"
 3290      756E7400 
 3291              	.LASF122:
 3292 04d5 5F5F6C6F 		.ascii	"__lock\000"
 3292      636B00
 3293              	.LASF22:
 3294 04dc 5F5F7661 		.ascii	"__value\000"
 3294      6C756500 
 3295              	.LASF60:
 3296 04e4 5F736565 		.ascii	"_seek\000"
 3296      6B00
 3297              	.LASF39:
 3298 04ea 5F5F746D 		.ascii	"__tm_wday\000"
 3298      5F776461 
 3298      7900
 3299              	.LASF17:
 3300 04f4 5F66706F 		.ascii	"_fpos_t\000"
 3300      735F7400 
 3301              	.LASF2:
 3302 04fc 6C6F6E67 		.ascii	"long double\000"
 3302      20646F75 
 3302      626C6500 
 3303              	.LASF71:
 3304 0508 5F657272 		.ascii	"_errno\000"
 3304      6E6F00
 3305              	.LASF25:
 3306 050f 63686172 		.ascii	"char\000"
 3306      00
 3307              	.LASF64:
 3308 0514 5F626C6B 		.ascii	"_blksize\000"
 3308      73697A65 
 3308      00
 3309              	.LASF52:
 3310 051d 5F73697A 		.ascii	"_size\000"
 3310      6500
 3311              	.LASF0:
 3312 0523 756E7369 		.ascii	"unsigned int\000"
 3312      676E6564 
 3312      20696E74 
 3312      00
 3313              	.LASF8:
 3314 0530 5F5F7569 		.ascii	"__uint16_t\000"
 3314      6E743136 
 3314      5F7400
 3315              	.LASF10:
 3316 053b 5F5F696E 		.ascii	"__int32_t\000"
 3316      7433325F 
 3316      7400
 3317              	.LASF133:
 3318 0545 41484250 		.ascii	"AHBPrescTable\000"
 3318      72657363 
 3318      5461626C 
 3318      6500
 3319              	.LASF27:
ARM GAS  C:\Users\EBANO_~1\AppData\Local\Temp\ccn772Xo.s 			page 65


 3320 0553 5F6E6578 		.ascii	"_next\000"
 3320      7400
 3321              	.LASF101:
 3322 0559 5F737472 		.ascii	"_strtok_last\000"
 3322      746F6B5F 
 3322      6C617374 
 3322      00
 3323              	.LASF45:
 3324 0566 5F666E74 		.ascii	"_fntypes\000"
 3324      79706573 
 3324      00
 3325              	.LASF9:
 3326 056f 73686F72 		.ascii	"short unsigned int\000"
 3326      7420756E 
 3326      7369676E 
 3326      65642069 
 3326      6E7400
 3327              	.LASF99:
 3328 0582 5F616464 		.ascii	"_add\000"
 3328      00
 3329              	.LASF26:
 3330 0587 5F5F554C 		.ascii	"__ULong\000"
 3330      6F6E6700 
 3331              	.LASF127:
 3332 058f 696E7438 		.ascii	"int8_t\000"
 3332      5F7400
 3333              	.LASF112:
 3334 0596 5F676574 		.ascii	"_getdate_err\000"
 3334      64617465 
 3334      5F657272 
 3334      00
 3335              	.LASF125:
 3336 05a3 5F676C6F 		.ascii	"_global_impure_ptr\000"
 3336      62616C5F 
 3336      696D7075 
 3336      72655F70 
 3336      747200
 3337              	.LASF131:
 3338 05b6 75696E74 		.ascii	"uint32_t\000"
 3338      33325F74 
 3338      00
 3339              	.LASF150:
 3340 05bf 6D656D73 		.ascii	"memset\000"
 3340      657400
 3341              	.LASF100:
 3342 05c6 5F756E75 		.ascii	"_unused_rand\000"
 3342      7365645F 
 3342      72616E64 
 3342      00
 3343              	.LASF30:
 3344 05d3 5F776473 		.ascii	"_wds\000"
 3344      00
 3345              	.LASF93:
 3346 05d8 5F676C75 		.ascii	"_glue\000"
 3346      6500
 3347              	.LASF128:
 3348 05de 75696E74 		.ascii	"uint8_t\000"
ARM GAS  C:\Users\EBANO_~1\AppData\Local\Temp\ccn772Xo.s 			page 66


 3348      385F7400 
 3349              	.LASF110:
 3350 05e6 5F6C3634 		.ascii	"_l64a_buf\000"
 3350      615F6275 
 3350      6600
 3351              	.LASF89:
 3352 05f0 5F736967 		.ascii	"_sig_func\000"
 3352      5F66756E 
 3352      6300
 3353              	.LASF24:
 3354 05fa 5F666C6F 		.ascii	"_flock_t\000"
 3354      636B5F74 
 3354      00
 3355              	.LASF147:
 3356 0603 443A5C67 		.ascii	"D:\\git_pessoal\\keil_gcc\\STM32CubeExpansion_LRWAN"
 3356      69745F70 
 3356      6573736F 
 3356      616C5C6B 
 3356      65696C5F 
 3357 0633 5F56312E 		.ascii	"_V1.2.1\\Projects\\B-L072Z-LRWAN1\\Applications\\Lo"
 3357      322E315C 
 3357      50726F6A 
 3357      65637473 
 3357      5C422D4C 
 3358 0662 52615C45 		.ascii	"Ra\\End_Node\\MDK-ARM\000"
 3358      6E645F4E 
 3358      6F64655C 
 3358      4D444B2D 
 3358      41524D00 
 3359              	.LASF63:
 3360 0676 5F6E6275 		.ascii	"_nbuf\000"
 3360      6600
 3361              	.LASF121:
 3362 067c 5F756E75 		.ascii	"_unused\000"
 3362      73656400 
 3363              	.LASF41:
 3364 0684 5F5F746D 		.ascii	"__tm_isdst\000"
 3364      5F697364 
 3364      737400
 3365              	.LASF103:
 3366 068f 5F6C6F63 		.ascii	"_localtime_buf\000"
 3366      616C7469 
 3366      6D655F62 
 3366      756600
 3367              	.LASF34:
 3368 069e 5F5F746D 		.ascii	"__tm_min\000"
 3368      5F6D696E 
 3368      00
 3369              	.LASF106:
 3370 06a7 5F723438 		.ascii	"_r48\000"
 3370      00
 3371              	.LASF108:
 3372 06ac 5F6D6274 		.ascii	"_mbtowc_state\000"
 3372      6F77635F 
 3372      73746174 
 3372      6500
 3373              	.LASF83:
ARM GAS  C:\Users\EBANO_~1\AppData\Local\Temp\ccn772Xo.s 			page 67


 3374 06ba 5F703573 		.ascii	"_p5s\000"
 3374      00
 3375              	.LASF36:
 3376 06bf 5F5F746D 		.ascii	"__tm_mday\000"
 3376      5F6D6461 
 3376      7900
 3377              		.ident	"GCC: (GNU Tools for Arm Embedded Processors 7-2018-q2-update) 7.3.1 20180622 (release) [AR
ARM GAS  C:\Users\EBANO_~1\AppData\Local\Temp\ccn772Xo.s 			page 68


DEFINED SYMBOLS
                            *ABS*:00000000 utilities.c
C:\Users\EBANO_~1\AppData\Local\Temp\ccn772Xo.s:17     .text.rand1:00000000 $t
C:\Users\EBANO_~1\AppData\Local\Temp\ccn772Xo.s:25     .text.rand1:00000000 rand1
C:\Users\EBANO_~1\AppData\Local\Temp\ccn772Xo.s:58     .text.rand1:0000001c $d
C:\Users\EBANO_~1\AppData\Local\Temp\ccn772Xo.s:66     .text.srand1:00000000 $t
C:\Users\EBANO_~1\AppData\Local\Temp\ccn772Xo.s:74     .text.srand1:00000000 srand1
C:\Users\EBANO_~1\AppData\Local\Temp\ccn772Xo.s:93     .text.srand1:00000008 $d
C:\Users\EBANO_~1\AppData\Local\Temp\ccn772Xo.s:99     .text.randr:00000000 $t
C:\Users\EBANO_~1\AppData\Local\Temp\ccn772Xo.s:107    .text.randr:00000000 randr
C:\Users\EBANO_~1\AppData\Local\Temp\ccn772Xo.s:176    .text.randr:0000002c $d
C:\Users\EBANO_~1\AppData\Local\Temp\ccn772Xo.s:184    .text.memcpy1:00000000 $t
C:\Users\EBANO_~1\AppData\Local\Temp\ccn772Xo.s:192    .text.memcpy1:00000000 memcpy1
C:\Users\EBANO_~1\AppData\Local\Temp\ccn772Xo.s:302    .text.memcpyr:00000000 $t
C:\Users\EBANO_~1\AppData\Local\Temp\ccn772Xo.s:310    .text.memcpyr:00000000 memcpyr
C:\Users\EBANO_~1\AppData\Local\Temp\ccn772Xo.s:351    .text.memset1:00000000 $t
C:\Users\EBANO_~1\AppData\Local\Temp\ccn772Xo.s:359    .text.memset1:00000000 memset1
C:\Users\EBANO_~1\AppData\Local\Temp\ccn772Xo.s:389    .text.Nibble2HexChar:00000000 $t
C:\Users\EBANO_~1\AppData\Local\Temp\ccn772Xo.s:397    .text.Nibble2HexChar:00000000 Nibble2HexChar
C:\Users\EBANO_~1\AppData\Local\Temp\ccn772Xo.s:436    .data:00000000 $d
C:\Users\EBANO_~1\AppData\Local\Temp\ccn772Xo.s:440    .data:00000000 next

UNDEFINED SYMBOLS
__aeabi_uidivmod
__aeabi_idivmod
memset
