ARM GAS  C:\Users\EBANO_~1\AppData\Local\Temp\ccn772Xo.s 			page 1


   1              		.cpu cortex-m0plus
   2              		.eabi_attribute 20, 1
   3              		.eabi_attribute 21, 1
   4              		.eabi_attribute 23, 3
   5              		.eabi_attribute 24, 1
   6              		.eabi_attribute 25, 1
   7              		.eabi_attribute 26, 1
   8              		.eabi_attribute 30, 2
   9              		.eabi_attribute 34, 0
  10              		.eabi_attribute 18, 4
  11              		.file	"utilities.c"
  12              		.text
  13              	.Ltext0:
  14              		.cfi_sections	.debug_frame
  15              		.global	__aeabi_uidivmod
  16              		.section	.text.rand1,"ax",%progbits
  17              		.align	1
  18              		.p2align 2,,3
  19              		.global	rand1
  20              		.syntax unified
  21              		.code	16
  22              		.thumb_func
  23              		.fpu softvfp
  24              		.type	rand1, %function
  25              	rand1:
  26              	.LFB39:
  27              		.file 1 "../../../../../../Middlewares/Third_Party/LoRaWAN/Utilities/utilities.c"
   1:../../../../../../Middlewares/Third_Party/LoRaWAN/Utilities/utilities.c **** /*
   2:../../../../../../Middlewares/Third_Party/LoRaWAN/Utilities/utilities.c ****  / _____)             _              | |
   3:../../../../../../Middlewares/Third_Party/LoRaWAN/Utilities/utilities.c **** ( (____  _____ ____ _| |_ _____  ____| |__
   4:../../../../../../Middlewares/Third_Party/LoRaWAN/Utilities/utilities.c ****  \____ \| ___ |    (_   _) ___ |/ ___)  _ \
   5:../../../../../../Middlewares/Third_Party/LoRaWAN/Utilities/utilities.c ****  _____) ) ____| | | || |_| ____( (___| | | |
   6:../../../../../../Middlewares/Third_Party/LoRaWAN/Utilities/utilities.c **** (______/|_____)_|_|_| \__)_____)\____)_| |_|
   7:../../../../../../Middlewares/Third_Party/LoRaWAN/Utilities/utilities.c ****     (C)2013 Semtech
   8:../../../../../../Middlewares/Third_Party/LoRaWAN/Utilities/utilities.c **** 
   9:../../../../../../Middlewares/Third_Party/LoRaWAN/Utilities/utilities.c **** Description: Helper functions implementation
  10:../../../../../../Middlewares/Third_Party/LoRaWAN/Utilities/utilities.c **** 
  11:../../../../../../Middlewares/Third_Party/LoRaWAN/Utilities/utilities.c **** License: Revised BSD License, see LICENSE.TXT file include in the project
  12:../../../../../../Middlewares/Third_Party/LoRaWAN/Utilities/utilities.c **** 
  13:../../../../../../Middlewares/Third_Party/LoRaWAN/Utilities/utilities.c **** Maintainer: Miguel Luis and Gregory Cristian
  14:../../../../../../Middlewares/Third_Party/LoRaWAN/Utilities/utilities.c **** */
  15:../../../../../../Middlewares/Third_Party/LoRaWAN/Utilities/utilities.c **** #include <stdlib.h>
  16:../../../../../../Middlewares/Third_Party/LoRaWAN/Utilities/utilities.c **** #include <stdio.h>
  17:../../../../../../Middlewares/Third_Party/LoRaWAN/Utilities/utilities.c **** #include <stdint.h>
  18:../../../../../../Middlewares/Third_Party/LoRaWAN/Utilities/utilities.c **** #include "utilities.h"
  19:../../../../../../Middlewares/Third_Party/LoRaWAN/Utilities/utilities.c **** 
  20:../../../../../../Middlewares/Third_Party/LoRaWAN/Utilities/utilities.c **** /*!
  21:../../../../../../Middlewares/Third_Party/LoRaWAN/Utilities/utilities.c ****  * Redefinition of rand() and srand() standard C functions.
  22:../../../../../../Middlewares/Third_Party/LoRaWAN/Utilities/utilities.c ****  * These functions are redefined in order to get the same behavior across
  23:../../../../../../Middlewares/Third_Party/LoRaWAN/Utilities/utilities.c ****  * different compiler toolchains implementations.
  24:../../../../../../Middlewares/Third_Party/LoRaWAN/Utilities/utilities.c ****  */
  25:../../../../../../Middlewares/Third_Party/LoRaWAN/Utilities/utilities.c **** // Standard random functions redefinition start
  26:../../../../../../Middlewares/Third_Party/LoRaWAN/Utilities/utilities.c **** #define RAND_LOCAL_MAX 2147483647L
  27:../../../../../../Middlewares/Third_Party/LoRaWAN/Utilities/utilities.c **** 
  28:../../../../../../Middlewares/Third_Party/LoRaWAN/Utilities/utilities.c **** static uint32_t next = 1;
  29:../../../../../../Middlewares/Third_Party/LoRaWAN/Utilities/utilities.c **** 
  30:../../../../../../Middlewares/Third_Party/LoRaWAN/Utilities/utilities.c **** int32_t rand1( void )
ARM GAS  C:\Users\EBANO_~1\AppData\Local\Temp\ccn772Xo.s 			page 2


  31:../../../../../../Middlewares/Third_Party/LoRaWAN/Utilities/utilities.c **** {
  28              		.loc 1 31 0
  29              		.cfi_startproc
  30              		@ args = 0, pretend = 0, frame = 0
  31              		@ frame_needed = 0, uses_anonymous_args = 0
  32:../../../../../../Middlewares/Third_Party/LoRaWAN/Utilities/utilities.c ****     return ( ( next = next * 1103515245L + 12345L ) % RAND_LOCAL_MAX );
  32              		.loc 1 32 0
  33 0000 064B     		ldr	r3, .L3
  34 0002 0748     		ldr	r0, .L3+4
  35 0004 1A68     		ldr	r2, [r3]
  31:../../../../../../Middlewares/Third_Party/LoRaWAN/Utilities/utilities.c ****     return ( ( next = next * 1103515245L + 12345L ) % RAND_LOCAL_MAX );
  36              		.loc 1 31 0
  37 0006 10B5     		push	{r4, lr}
  38              	.LCFI0:
  39              		.cfi_def_cfa_offset 8
  40              		.cfi_offset 4, -8
  41              		.cfi_offset 14, -4
  42              		.loc 1 32 0
  43 0008 5043     		muls	r0, r2
  44 000a 064A     		ldr	r2, .L3+8
  45 000c 0649     		ldr	r1, .L3+12
  46 000e 9446     		mov	ip, r2
  47 0010 6044     		add	r0, r0, ip
  48 0012 1860     		str	r0, [r3]
  49 0014 FFF7FEFF 		bl	__aeabi_uidivmod
  50              	.LVL0:
  33:../../../../../../Middlewares/Third_Party/LoRaWAN/Utilities/utilities.c **** }
  51              		.loc 1 33 0
  52              		@ sp needed
  53 0018 0800     		movs	r0, r1
  54 001a 10BD     		pop	{r4, pc}
  55              	.L4:
  56              		.align	2
  57              	.L3:
  58 001c 00000000 		.word	.LANCHOR0
  59 0020 6D4EC641 		.word	1103515245
  60 0024 39300000 		.word	12345
  61 0028 FFFFFF7F 		.word	2147483647
  62              		.cfi_endproc
  63              	.LFE39:
  64              		.size	rand1, .-rand1
  65              		.section	.text.srand1,"ax",%progbits
  66              		.align	1
  67              		.p2align 2,,3
  68              		.global	srand1
  69              		.syntax unified
  70              		.code	16
  71              		.thumb_func
  72              		.fpu softvfp
  73              		.type	srand1, %function
  74              	srand1:
  75              	.LFB40:
  34:../../../../../../Middlewares/Third_Party/LoRaWAN/Utilities/utilities.c **** 
  35:../../../../../../Middlewares/Third_Party/LoRaWAN/Utilities/utilities.c **** void srand1( uint32_t seed )
  36:../../../../../../Middlewares/Third_Party/LoRaWAN/Utilities/utilities.c **** {
  76              		.loc 1 36 0
  77              		.cfi_startproc
ARM GAS  C:\Users\EBANO_~1\AppData\Local\Temp\ccn772Xo.s 			page 3


  78              		@ args = 0, pretend = 0, frame = 0
  79              		@ frame_needed = 0, uses_anonymous_args = 0
  80              		@ link register save eliminated.
  81              	.LVL1:
  37:../../../../../../Middlewares/Third_Party/LoRaWAN/Utilities/utilities.c ****     next = seed;
  82              		.loc 1 37 0
  83 0000 014B     		ldr	r3, .L6
  38:../../../../../../Middlewares/Third_Party/LoRaWAN/Utilities/utilities.c **** }
  84              		.loc 1 38 0
  85              		@ sp needed
  37:../../../../../../Middlewares/Third_Party/LoRaWAN/Utilities/utilities.c ****     next = seed;
  86              		.loc 1 37 0
  87 0002 1860     		str	r0, [r3]
  88              		.loc 1 38 0
  89 0004 7047     		bx	lr
  90              	.L7:
  91 0006 C046     		.align	2
  92              	.L6:
  93 0008 00000000 		.word	.LANCHOR0
  94              		.cfi_endproc
  95              	.LFE40:
  96              		.size	srand1, .-srand1
  97              		.global	__aeabi_idivmod
  98              		.section	.text.randr,"ax",%progbits
  99              		.align	1
 100              		.p2align 2,,3
 101              		.global	randr
 102              		.syntax unified
 103              		.code	16
 104              		.thumb_func
 105              		.fpu softvfp
 106              		.type	randr, %function
 107              	randr:
 108              	.LFB41:
  39:../../../../../../Middlewares/Third_Party/LoRaWAN/Utilities/utilities.c **** // Standard random functions redefinition end
  40:../../../../../../Middlewares/Third_Party/LoRaWAN/Utilities/utilities.c **** 
  41:../../../../../../Middlewares/Third_Party/LoRaWAN/Utilities/utilities.c **** int32_t randr( int32_t min, int32_t max )
  42:../../../../../../Middlewares/Third_Party/LoRaWAN/Utilities/utilities.c **** {
 109              		.loc 1 42 0
 110              		.cfi_startproc
 111              		@ args = 0, pretend = 0, frame = 0
 112              		@ frame_needed = 0, uses_anonymous_args = 0
 113              	.LVL2:
 114              	.LBB4:
 115              	.LBB5:
  32:../../../../../../Middlewares/Third_Party/LoRaWAN/Utilities/utilities.c **** }
 116              		.loc 1 32 0
 117 0000 0A4B     		ldr	r3, .L9
 118              	.LBE5:
 119              	.LBE4:
 120              		.loc 1 42 0
 121 0002 70B5     		push	{r4, r5, r6, lr}
 122              	.LCFI1:
 123              		.cfi_def_cfa_offset 16
 124              		.cfi_offset 4, -16
 125              		.cfi_offset 5, -12
 126              		.cfi_offset 6, -8
ARM GAS  C:\Users\EBANO_~1\AppData\Local\Temp\ccn772Xo.s 			page 4


 127              		.cfi_offset 14, -4
 128              	.LBB9:
 129              	.LBB6:
  32:../../../../../../Middlewares/Third_Party/LoRaWAN/Utilities/utilities.c **** }
 130              		.loc 1 32 0
 131 0004 1A68     		ldr	r2, [r3]
 132              	.LBE6:
 133              	.LBE9:
 134              		.loc 1 42 0
 135 0006 0500     		movs	r5, r0
 136              	.LBB10:
 137              	.LBB7:
  32:../../../../../../Middlewares/Third_Party/LoRaWAN/Utilities/utilities.c **** }
 138              		.loc 1 32 0
 139 0008 0948     		ldr	r0, .L9+4
 140              	.LVL3:
 141              	.LBE7:
 142              	.LBE10:
 143              		.loc 1 42 0
 144 000a 0C00     		movs	r4, r1
 145              	.LBB11:
 146              	.LBB8:
  32:../../../../../../Middlewares/Third_Party/LoRaWAN/Utilities/utilities.c **** }
 147              		.loc 1 32 0
 148 000c 5043     		muls	r0, r2
 149 000e 094A     		ldr	r2, .L9+8
 150 0010 0949     		ldr	r1, .L9+12
 151              	.LVL4:
 152 0012 9446     		mov	ip, r2
 153 0014 6044     		add	r0, r0, ip
 154 0016 1860     		str	r0, [r3]
 155 0018 FFF7FEFF 		bl	__aeabi_uidivmod
 156              	.LVL5:
 157 001c 0800     		movs	r0, r1
 158              	.LBE8:
 159              	.LBE11:
  43:../../../../../../Middlewares/Third_Party/LoRaWAN/Utilities/utilities.c ****     return ( int32_t )rand1( ) % ( max - min + 1 ) + min;
 160              		.loc 1 43 0
 161 001e 611B     		subs	r1, r4, r5
 162 0020 0131     		adds	r1, r1, #1
 163 0022 FFF7FEFF 		bl	__aeabi_idivmod
 164              	.LVL6:
  44:../../../../../../Middlewares/Third_Party/LoRaWAN/Utilities/utilities.c **** }
 165              		.loc 1 44 0
 166              		@ sp needed
  43:../../../../../../Middlewares/Third_Party/LoRaWAN/Utilities/utilities.c ****     return ( int32_t )rand1( ) % ( max - min + 1 ) + min;
 167              		.loc 1 43 0
 168 0026 4819     		adds	r0, r1, r5
 169              	.LVL7:
 170              	.LVL8:
 171              		.loc 1 44 0
 172 0028 70BD     		pop	{r4, r5, r6, pc}
 173              	.L10:
 174 002a C046     		.align	2
 175              	.L9:
 176 002c 00000000 		.word	.LANCHOR0
 177 0030 6D4EC641 		.word	1103515245
ARM GAS  C:\Users\EBANO_~1\AppData\Local\Temp\ccn772Xo.s 			page 5


 178 0034 39300000 		.word	12345
 179 0038 FFFFFF7F 		.word	2147483647
 180              		.cfi_endproc
 181              	.LFE41:
 182              		.size	randr, .-randr
 183              		.section	.text.memcpy1,"ax",%progbits
 184              		.align	1
 185              		.p2align 2,,3
 186              		.global	memcpy1
 187              		.syntax unified
 188              		.code	16
 189              		.thumb_func
 190              		.fpu softvfp
 191              		.type	memcpy1, %function
 192              	memcpy1:
 193              	.LFB42:
  45:../../../../../../Middlewares/Third_Party/LoRaWAN/Utilities/utilities.c **** 
  46:../../../../../../Middlewares/Third_Party/LoRaWAN/Utilities/utilities.c **** void memcpy1( uint8_t *dst, const uint8_t *src, uint16_t size )
  47:../../../../../../Middlewares/Third_Party/LoRaWAN/Utilities/utilities.c **** {
 194              		.loc 1 47 0
 195              		.cfi_startproc
 196              		@ args = 0, pretend = 0, frame = 0
 197              		@ frame_needed = 0, uses_anonymous_args = 0
 198              	.LVL9:
 199 0000 F0B5     		push	{r4, r5, r6, r7, lr}
 200              	.LCFI2:
 201              		.cfi_def_cfa_offset 20
 202              		.cfi_offset 4, -20
 203              		.cfi_offset 5, -16
 204              		.cfi_offset 6, -12
 205              		.cfi_offset 7, -8
 206              		.cfi_offset 14, -4
  48:../../../../../../Middlewares/Third_Party/LoRaWAN/Utilities/utilities.c ****     while( size-- )
 207              		.loc 1 48 0
 208 0002 551E     		subs	r5, r2, #1
 209 0004 ADB2     		uxth	r5, r5
 210              	.LVL10:
 211 0006 002A     		cmp	r2, #0
 212 0008 32D0     		beq	.L11
 213 000a 0023     		movs	r3, #0
 214 000c 1E00     		movs	r6, r3
 215 000e 041D     		adds	r4, r0, #4
 216 0010 A142     		cmp	r1, r4
 217 0012 5E41     		adcs	r6, r6, r3
 218 0014 3400     		movs	r4, r6
 219 0016 0E1D     		adds	r6, r1, #4
 220 0018 B042     		cmp	r0, r6
 221 001a 5B41     		adcs	r3, r3, r3
 222 001c 2343     		orrs	r3, r4
 223 001e 0924     		movs	r4, #9
 224 0020 9442     		cmp	r4, r2
 225 0022 A441     		sbcs	r4, r4, r4
 226 0024 6442     		rsbs	r4, r4, #0
 227 0026 1C42     		tst	r4, r3
 228 0028 23D0     		beq	.L13
 229 002a 0300     		movs	r3, r0
 230 002c 0B43     		orrs	r3, r1
ARM GAS  C:\Users\EBANO_~1\AppData\Local\Temp\ccn772Xo.s 			page 6


 231 002e 9B07     		lsls	r3, r3, #30
 232 0030 1FD1     		bne	.L13
 233 0032 022D     		cmp	r5, #2
 234 0034 12D9     		bls	.L14
 235 0036 0023     		movs	r3, #0
 236 0038 0024     		movs	r4, #0
 237 003a 9708     		lsrs	r7, r2, #2
 238              	.LVL11:
 239              	.L15:
  49:../../../../../../Middlewares/Third_Party/LoRaWAN/Utilities/utilities.c ****     {
  50:../../../../../../Middlewares/Third_Party/LoRaWAN/Utilities/utilities.c ****         *dst++ = *src++;
 240              		.loc 1 50 0
 241 003c CE58     		ldr	r6, [r1, r3]
 242 003e 0134     		adds	r4, r4, #1
 243 0040 C650     		str	r6, [r0, r3]
 244 0042 A6B2     		uxth	r6, r4
 245 0044 0433     		adds	r3, r3, #4
 246 0046 B742     		cmp	r7, r6
 247 0048 F8D8     		bhi	.L15
 248 004a 0323     		movs	r3, #3
 249 004c 1400     		movs	r4, r2
 250 004e 9C43     		bics	r4, r3
 251 0050 2D1B     		subs	r5, r5, r4
 252 0052 0019     		adds	r0, r0, r4
 253 0054 0919     		adds	r1, r1, r4
 254 0056 ADB2     		uxth	r5, r5
 255 0058 A242     		cmp	r2, r4
 256 005a 09D0     		beq	.L11
 257              	.L14:
 258              	.LVL12:
 259 005c 0B78     		ldrb	r3, [r1]
 260 005e 0370     		strb	r3, [r0]
 261              	.LVL13:
  48:../../../../../../Middlewares/Third_Party/LoRaWAN/Utilities/utilities.c ****     while( size-- )
 262              		.loc 1 48 0
 263 0060 002D     		cmp	r5, #0
 264 0062 05D0     		beq	.L11
 265              	.LVL14:
 266              		.loc 1 50 0
 267 0064 4B78     		ldrb	r3, [r1, #1]
 268 0066 4370     		strb	r3, [r0, #1]
 269              	.LVL15:
  48:../../../../../../Middlewares/Third_Party/LoRaWAN/Utilities/utilities.c ****     while( size-- )
 270              		.loc 1 48 0
 271 0068 012D     		cmp	r5, #1
 272 006a 01D0     		beq	.L11
 273              	.LVL16:
 274              		.loc 1 50 0
 275 006c 8B78     		ldrb	r3, [r1, #2]
 276 006e 8370     		strb	r3, [r0, #2]
 277              	.LVL17:
 278              	.L11:
  51:../../../../../../Middlewares/Third_Party/LoRaWAN/Utilities/utilities.c ****     }
  52:../../../../../../Middlewares/Third_Party/LoRaWAN/Utilities/utilities.c **** }
 279              		.loc 1 52 0
 280              		@ sp needed
 281 0070 F0BD     		pop	{r4, r5, r6, r7, pc}
ARM GAS  C:\Users\EBANO_~1\AppData\Local\Temp\ccn772Xo.s 			page 7


 282              	.LVL18:
 283              	.L13:
  48:../../../../../../Middlewares/Third_Party/LoRaWAN/Utilities/utilities.c ****     {
 284              		.loc 1 48 0
 285 0072 0023     		movs	r3, #0
 286 0074 0135     		adds	r5, r5, #1
 287              	.LVL19:
 288              	.L17:
  50:../../../../../../Middlewares/Third_Party/LoRaWAN/Utilities/utilities.c ****     }
 289              		.loc 1 50 0
 290 0076 CA5C     		ldrb	r2, [r1, r3]
 291 0078 C254     		strb	r2, [r0, r3]
 292 007a 0133     		adds	r3, r3, #1
 293              	.LVL20:
  48:../../../../../../Middlewares/Third_Party/LoRaWAN/Utilities/utilities.c ****     {
 294              		.loc 1 48 0
 295 007c AB42     		cmp	r3, r5
 296 007e FAD1     		bne	.L17
 297 0080 F6E7     		b	.L11
 298              		.cfi_endproc
 299              	.LFE42:
 300              		.size	memcpy1, .-memcpy1
 301 0082 C046     		.section	.text.memcpyr,"ax",%progbits
 302              		.align	1
 303              		.p2align 2,,3
 304              		.global	memcpyr
 305              		.syntax unified
 306              		.code	16
 307              		.thumb_func
 308              		.fpu softvfp
 309              		.type	memcpyr, %function
 310              	memcpyr:
 311              	.LFB43:
  53:../../../../../../Middlewares/Third_Party/LoRaWAN/Utilities/utilities.c **** 
  54:../../../../../../Middlewares/Third_Party/LoRaWAN/Utilities/utilities.c **** void memcpyr( uint8_t *dst, const uint8_t *src, uint16_t size )
  55:../../../../../../Middlewares/Third_Party/LoRaWAN/Utilities/utilities.c **** {
 312              		.loc 1 55 0
 313              		.cfi_startproc
 314              		@ args = 0, pretend = 0, frame = 0
 315              		@ frame_needed = 0, uses_anonymous_args = 0
 316              		@ link register save eliminated.
 317              	.LVL21:
  56:../../../../../../Middlewares/Third_Party/LoRaWAN/Utilities/utilities.c ****     dst = dst + ( size - 1 );
 318              		.loc 1 56 0
 319 0000 531E     		subs	r3, r2, #1
 320 0002 C018     		adds	r0, r0, r3
 321              	.LVL22:
  57:../../../../../../Middlewares/Third_Party/LoRaWAN/Utilities/utilities.c ****     while( size-- )
 322              		.loc 1 57 0
 323 0004 9BB2     		uxth	r3, r3
 324              	.LVL23:
 325 0006 002A     		cmp	r2, #0
 326 0008 07D0     		beq	.L36
 327 000a DB43     		mvns	r3, r3
 328              	.LVL24:
 329 000c C318     		adds	r3, r0, r3
 330              	.LVL25:
ARM GAS  C:\Users\EBANO_~1\AppData\Local\Temp\ccn772Xo.s 			page 8


 331              	.L38:
  58:../../../../../../Middlewares/Third_Party/LoRaWAN/Utilities/utilities.c ****     {
  59:../../../../../../Middlewares/Third_Party/LoRaWAN/Utilities/utilities.c ****         *dst-- = *src++;
 332              		.loc 1 59 0
 333 000e 0A78     		ldrb	r2, [r1]
 334 0010 0138     		subs	r0, r0, #1
 335              	.LVL26:
 336 0012 4270     		strb	r2, [r0, #1]
 337 0014 0131     		adds	r1, r1, #1
 338              	.LVL27:
  57:../../../../../../Middlewares/Third_Party/LoRaWAN/Utilities/utilities.c ****     while( size-- )
 339              		.loc 1 57 0
 340 0016 9842     		cmp	r0, r3
 341 0018 F9D1     		bne	.L38
 342              	.LVL28:
 343              	.L36:
  60:../../../../../../Middlewares/Third_Party/LoRaWAN/Utilities/utilities.c ****     }
  61:../../../../../../Middlewares/Third_Party/LoRaWAN/Utilities/utilities.c **** }
 344              		.loc 1 61 0
 345              		@ sp needed
 346 001a 7047     		bx	lr
 347              		.cfi_endproc
 348              	.LFE43:
 349              		.size	memcpyr, .-memcpyr
 350              		.section	.text.memset1,"ax",%progbits
 351              		.align	1
 352              		.p2align 2,,3
 353              		.global	memset1
 354              		.syntax unified
 355              		.code	16
 356              		.thumb_func
 357              		.fpu softvfp
 358              		.type	memset1, %function
 359              	memset1:
 360              	.LFB44:
  62:../../../../../../Middlewares/Third_Party/LoRaWAN/Utilities/utilities.c **** 
  63:../../../../../../Middlewares/Third_Party/LoRaWAN/Utilities/utilities.c **** void memset1( uint8_t *dst, uint8_t value, uint16_t size )
  64:../../../../../../Middlewares/Third_Party/LoRaWAN/Utilities/utilities.c **** {
 361              		.loc 1 64 0
 362              		.cfi_startproc
 363              		@ args = 0, pretend = 0, frame = 0
 364              		@ frame_needed = 0, uses_anonymous_args = 0
 365              	.LVL29:
 366 0000 10B5     		push	{r4, lr}
 367              	.LCFI3:
 368              		.cfi_def_cfa_offset 8
 369              		.cfi_offset 4, -8
 370              		.cfi_offset 14, -4
  65:../../../../../../Middlewares/Third_Party/LoRaWAN/Utilities/utilities.c ****     while( size-- )
 371              		.loc 1 65 0
 372 0002 002A     		cmp	r2, #0
 373 0004 04D0     		beq	.L43
  66:../../../../../../Middlewares/Third_Party/LoRaWAN/Utilities/utilities.c ****     {
  67:../../../../../../Middlewares/Third_Party/LoRaWAN/Utilities/utilities.c ****         *dst++ = value;
 374              		.loc 1 67 0
 375 0006 013A     		subs	r2, r2, #1
 376              	.LVL30:
ARM GAS  C:\Users\EBANO_~1\AppData\Local\Temp\ccn772Xo.s 			page 9


 377 0008 92B2     		uxth	r2, r2
 378 000a 0132     		adds	r2, r2, #1
 379 000c FFF7FEFF 		bl	memset
 380              	.LVL31:
 381              	.L43:
  68:../../../../../../Middlewares/Third_Party/LoRaWAN/Utilities/utilities.c ****     }
  69:../../../../../../Middlewares/Third_Party/LoRaWAN/Utilities/utilities.c **** }
 382              		.loc 1 69 0
 383              		@ sp needed
 384 0010 10BD     		pop	{r4, pc}
 385              		.cfi_endproc
 386              	.LFE44:
 387              		.size	memset1, .-memset1
 388 0012 C046     		.section	.text.Nibble2HexChar,"ax",%progbits
 389              		.align	1
 390              		.p2align 2,,3
 391              		.global	Nibble2HexChar
 392              		.syntax unified
 393              		.code	16
 394              		.thumb_func
 395              		.fpu softvfp
 396              		.type	Nibble2HexChar, %function
 397              	Nibble2HexChar:
 398              	.LFB45:
  70:../../../../../../Middlewares/Third_Party/LoRaWAN/Utilities/utilities.c **** 
  71:../../../../../../Middlewares/Third_Party/LoRaWAN/Utilities/utilities.c **** int8_t Nibble2HexChar( uint8_t a )
  72:../../../../../../Middlewares/Third_Party/LoRaWAN/Utilities/utilities.c **** {
 399              		.loc 1 72 0
 400              		.cfi_startproc
 401              		@ args = 0, pretend = 0, frame = 0
 402              		@ frame_needed = 0, uses_anonymous_args = 0
 403              		@ link register save eliminated.
 404              	.LVL32:
  73:../../../../../../Middlewares/Third_Party/LoRaWAN/Utilities/utilities.c ****     if( a < 10 )
 405              		.loc 1 73 0
 406 0000 0928     		cmp	r0, #9
 407 0002 04D9     		bls	.L52
  74:../../../../../../Middlewares/Third_Party/LoRaWAN/Utilities/utilities.c ****     {
  75:../../../../../../Middlewares/Third_Party/LoRaWAN/Utilities/utilities.c ****         return '0' + a;
  76:../../../../../../Middlewares/Third_Party/LoRaWAN/Utilities/utilities.c ****     }
  77:../../../../../../Middlewares/Third_Party/LoRaWAN/Utilities/utilities.c ****     else if( a < 16 )
 408              		.loc 1 77 0
 409 0004 0F28     		cmp	r0, #15
 410 0006 05D8     		bhi	.L51
  78:../../../../../../Middlewares/Third_Party/LoRaWAN/Utilities/utilities.c ****     {
  79:../../../../../../Middlewares/Third_Party/LoRaWAN/Utilities/utilities.c ****         return 'A' + ( a - 10 );
 411              		.loc 1 79 0
 412 0008 3730     		adds	r0, r0, #55
 413              	.LVL33:
 414 000a 40B2     		sxtb	r0, r0
 415              	.L50:
  80:../../../../../../Middlewares/Third_Party/LoRaWAN/Utilities/utilities.c ****     }
  81:../../../../../../Middlewares/Third_Party/LoRaWAN/Utilities/utilities.c ****     else
  82:../../../../../../Middlewares/Third_Party/LoRaWAN/Utilities/utilities.c ****     {
  83:../../../../../../Middlewares/Third_Party/LoRaWAN/Utilities/utilities.c ****         return '?';
  84:../../../../../../Middlewares/Third_Party/LoRaWAN/Utilities/utilities.c ****     }
  85:../../../../../../Middlewares/Third_Party/LoRaWAN/Utilities/utilities.c **** }
ARM GAS  C:\Users\EBANO_~1\AppData\Local\Temp\ccn772Xo.s 			page 10


 416              		.loc 1 85 0
 417              		@ sp needed
 418 000c 7047     		bx	lr
 419              	.LVL34:
 420              	.L52:
  75:../../../../../../Middlewares/Third_Party/LoRaWAN/Utilities/utilities.c ****     }
 421              		.loc 1 75 0
 422 000e 3030     		adds	r0, r0, #48
 423              	.LVL35:
 424 0010 40B2     		sxtb	r0, r0
 425 0012 FBE7     		b	.L50
 426              	.LVL36:
 427              	.L51:
  83:../../../../../../Middlewares/Third_Party/LoRaWAN/Utilities/utilities.c ****     }
 428              		.loc 1 83 0
 429 0014 3F20     		movs	r0, #63
 430              	.LVL37:
 431 0016 F9E7     		b	.L50
 432              		.cfi_endproc
 433              	.LFE45:
 434              		.size	Nibble2HexChar, .-Nibble2HexChar
 435              		.data
 436              		.align	2
 437              		.set	.LANCHOR0,. + 0
 438              		.type	next, %object
 439              		.size	next, 4
 440              	next:
 441 0000 01000000 		.word	1
 442              		.text
 443              	.Letext0:
 444              		.file 2 "c:\\program files (x86)\\gnu tools arm embedded\\7 2018-q2-update\\arm-none-eabi\\include
 445              		.file 3 "c:\\program files (x86)\\gnu tools arm embedded\\7 2018-q2-update\\arm-none-eabi\\include
 446              		.file 4 "c:\\program files (x86)\\gnu tools arm embedded\\7 2018-q2-update\\arm-none-eabi\\include
 447              		.file 5 "c:\\program files (x86)\\gnu tools arm embedded\\7 2018-q2-update\\lib\\gcc\\arm-none-eab
 448              		.file 6 "c:\\program files (x86)\\gnu tools arm embedded\\7 2018-q2-update\\arm-none-eabi\\include
 449              		.file 7 "c:\\program files (x86)\\gnu tools arm embedded\\7 2018-q2-update\\arm-none-eabi\\include
 450              		.file 8 "c:\\program files (x86)\\gnu tools arm embedded\\7 2018-q2-update\\arm-none-eabi\\include
 451              		.file 9 "../../../../../../Drivers/CMSIS/Device/ST/STM32L0xx/Include/system_stm32l0xx.h"
 452              		.file 10 "<built-in>"